

Microchip MPLAB XC8 Assembler V2.35 build 20211206165544 
                                                                                               Sat May 14 23:07:24 2022

Microchip MPLAB XC8 C Compiler v2.35 (Free license) build 20211206165544 Og1 
     1                           	processor	16F887
     2                           	pagewidth 120
     3                           	opt	flic
     4                           	psect	cinit,global,class=CODE,merge=1,delta=2
     5                           	psect	bssBANK1,global,class=BANK1,space=1,delta=1,noexec
     6                           	psect	cstackBANK1,global,class=BANK1,space=1,delta=1,noexec
     7                           	psect	cstackCOMMON,global,class=COMMON,space=1,delta=1,noexec
     8                           	psect	cstackBANK0,global,class=BANK0,space=1,delta=1,noexec
     9                           	psect	maintext,global,class=CODE,split=1,delta=2
    10                           	psect	text1,local,class=CODE,merge=1,delta=2
    11                           	psect	text2,local,class=CODE,merge=1,delta=2
    12                           	psect	intentry,global,class=CODE,delta=2
    13                           	psect	text3,local,class=CODE,merge=1,delta=2
    14                           	psect	text4,local,class=CODE,merge=1,delta=2,group=1
    15                           	psect	text5,local,class=CODE,merge=1,delta=2,group=1
    16                           	psect	text6,local,class=CODE,merge=1,delta=2,group=1
    17                           	psect	text7,local,class=CODE,merge=1,delta=2,group=1
    18                           	psect	text8,local,class=CODE,merge=1,delta=2,group=1
    19                           	psect	text9,local,class=CODE,merge=1,delta=2,group=1
    20                           	psect	idloc,global,abs,ovrld,class=IDLOC,space=5,delta=2,noexec
    21                           	psect	config,global,abs,ovrld,class=CONFIG,space=4,delta=2,noexec
    22                           	dabs	1,0x7E,2
    23  0000                     
    24                           ; Version 2.40
    25                           ; Generated 17/11/2021 GMT
    26                           ; 
    27                           ; Copyright © 2021, Microchip Technology Inc. and its subsidiaries ("Microchip")
    28                           ; All rights reserved.
    29                           ; 
    30                           ; This software is developed by Microchip Technology Inc. and its subsidiaries ("Microch
      +                          ip").
    31                           ; 
    32                           ; Redistribution and use in source and binary forms, with or without modification, are
    33                           ; permitted provided that the following conditions are met:
    34                           ; 
    35                           ;     1. Redistributions of source code must retain the above copyright notice, this lis
      +                          t of
    36                           ;        conditions and the following disclaimer.
    37                           ; 
    38                           ;     2. Redistributions in binary form must reproduce the above copyright notice, this 
      +                          list
    39                           ;        of conditions and the following disclaimer in the documentation and/or other
    40                           ;        materials provided with the distribution. Publication is not required when
    41                           ;        this file is used in an embedded application.
    42                           ; 
    43                           ;     3. Microchip's name may not be used to endorse or promote products derived from th
      +                          is
    44                           ;        software without specific prior written permission.
    45                           ; 
    46                           ; THIS SOFTWARE IS PROVIDED BY MICROCHIP "AS IS" AND ANY EXPRESS OR IMPLIED WARRANTIES,
    47                           ; INCLUDING, BUT NOT LIMITED TO, THE IMPLIED WARRANTIES OF MERCHANTABILITY AND FITNESS F
      +                          OR
    48                           ; PURPOSE ARE DISCLAIMED.  IN NO EVENT SHALL MICROCHIP BE LIABLE FOR ANY DIRECT, INDIREC
      +                          T,
    49                           ; INCIDENTAL, SPECIAL, EXEMPLARY, OR CONSEQUENTIAL DAMAGES (INCLUDING BUT NOT LIMITED TO
    50                           ; PROCUREMENT OF SUBSTITUTE GOODS OR SERVICES; LOSS OF USE, DATA OR PROFITS; OR BUSINESS
    51                           ; INTERRUPTION) HOWSOEVER CAUSED AND ON ANY THEORY OF LIABILITY, WHETHER IN CONTRACT, ST
      +                          RICT
    52                           ; LIABILITY, OR TORT (INCLUDING NEGLIGENCE OR OTHERWISE) ARISING IN ANY WAY OUT OF THE U
      +                          SE OF
    53                           ; THIS SOFTWARE, EVEN IF ADVISED OF THE POSSIBILITY OF SUCH DAMAGE.
    54                           ; 
    55                           ; 
    56                           ; Code-generator required, PIC16F887 Definitions
    57                           ; 
    58                           ; SFR Addresses
    59  0000                     	;# 
    60  0001                     	;# 
    61  0002                     	;# 
    62  0003                     	;# 
    63  0004                     	;# 
    64  0005                     	;# 
    65  0006                     	;# 
    66  0007                     	;# 
    67  0008                     	;# 
    68  0009                     	;# 
    69  000A                     	;# 
    70  000B                     	;# 
    71  000C                     	;# 
    72  000D                     	;# 
    73  000E                     	;# 
    74  000E                     	;# 
    75  000F                     	;# 
    76  0010                     	;# 
    77  0011                     	;# 
    78  0012                     	;# 
    79  0013                     	;# 
    80  0014                     	;# 
    81  0015                     	;# 
    82  0015                     	;# 
    83  0016                     	;# 
    84  0017                     	;# 
    85  0018                     	;# 
    86  0019                     	;# 
    87  001A                     	;# 
    88  001B                     	;# 
    89  001B                     	;# 
    90  001C                     	;# 
    91  001D                     	;# 
    92  001E                     	;# 
    93  001F                     	;# 
    94  0081                     	;# 
    95  0085                     	;# 
    96  0086                     	;# 
    97  0087                     	;# 
    98  0088                     	;# 
    99  0089                     	;# 
   100  008C                     	;# 
   101  008D                     	;# 
   102  008E                     	;# 
   103  008F                     	;# 
   104  0090                     	;# 
   105  0091                     	;# 
   106  0092                     	;# 
   107  0093                     	;# 
   108  0093                     	;# 
   109  0093                     	;# 
   110  0094                     	;# 
   111  0095                     	;# 
   112  0096                     	;# 
   113  0097                     	;# 
   114  0098                     	;# 
   115  0099                     	;# 
   116  009A                     	;# 
   117  009B                     	;# 
   118  009C                     	;# 
   119  009D                     	;# 
   120  009E                     	;# 
   121  009F                     	;# 
   122  0105                     	;# 
   123  0107                     	;# 
   124  0108                     	;# 
   125  0109                     	;# 
   126  010C                     	;# 
   127  010C                     	;# 
   128  010D                     	;# 
   129  010E                     	;# 
   130  010F                     	;# 
   131  0185                     	;# 
   132  0187                     	;# 
   133  0188                     	;# 
   134  0189                     	;# 
   135  018C                     	;# 
   136  018D                     	;# 
   137  0000                     	;# 
   138  0001                     	;# 
   139  0002                     	;# 
   140  0003                     	;# 
   141  0004                     	;# 
   142  0005                     	;# 
   143  0006                     	;# 
   144  0007                     	;# 
   145  0008                     	;# 
   146  0009                     	;# 
   147  000A                     	;# 
   148  000B                     	;# 
   149  000C                     	;# 
   150  000D                     	;# 
   151  000E                     	;# 
   152  000E                     	;# 
   153  000F                     	;# 
   154  0010                     	;# 
   155  0011                     	;# 
   156  0012                     	;# 
   157  0013                     	;# 
   158  0014                     	;# 
   159  0015                     	;# 
   160  0015                     	;# 
   161  0016                     	;# 
   162  0017                     	;# 
   163  0018                     	;# 
   164  0019                     	;# 
   165  001A                     	;# 
   166  001B                     	;# 
   167  001B                     	;# 
   168  001C                     	;# 
   169  001D                     	;# 
   170  001E                     	;# 
   171  001F                     	;# 
   172  0081                     	;# 
   173  0085                     	;# 
   174  0086                     	;# 
   175  0087                     	;# 
   176  0088                     	;# 
   177  0089                     	;# 
   178  008C                     	;# 
   179  008D                     	;# 
   180  008E                     	;# 
   181  008F                     	;# 
   182  0090                     	;# 
   183  0091                     	;# 
   184  0092                     	;# 
   185  0093                     	;# 
   186  0093                     	;# 
   187  0093                     	;# 
   188  0094                     	;# 
   189  0095                     	;# 
   190  0096                     	;# 
   191  0097                     	;# 
   192  0098                     	;# 
   193  0099                     	;# 
   194  009A                     	;# 
   195  009B                     	;# 
   196  009C                     	;# 
   197  009D                     	;# 
   198  009E                     	;# 
   199  009F                     	;# 
   200  0105                     	;# 
   201  0107                     	;# 
   202  0108                     	;# 
   203  0109                     	;# 
   204  010C                     	;# 
   205  010C                     	;# 
   206  010D                     	;# 
   207  010E                     	;# 
   208  010F                     	;# 
   209  0185                     	;# 
   210  0187                     	;# 
   211  0188                     	;# 
   212  0189                     	;# 
   213  018C                     	;# 
   214  018D                     	;# 
   215  000B                     _INTCONbits	set	11
   216  0014                     _SSPCONbits	set	20
   217  0007                     _PORTC	set	7
   218  0012                     _T2CONbits	set	18
   219  0017                     _CCP1CON	set	23
   220  0005                     _PORTA	set	5
   221  0017                     _CCP1CONbits	set	23
   222  0015                     _CCPR1L	set	21
   223  0013                     _SSPBUF	set	19
   224  000C                     _PIR1bits	set	12
   225  008C                     _PIE1bits	set	140
   226  0094                     _SSPSTATbits	set	148
   227  0087                     _TRISC	set	135
   228  0092                     _PR2	set	146
   229  0087                     _TRISCbits	set	135
   230  008F                     _OSCCONbits	set	143
   231  0085                     _TRISA	set	133
   232  0189                     _ANSELH	set	393
   233  0188                     _ANSEL	set	392
   234                           
   235                           	psect	cinit
   236  0013                     start_initialization:	
   237                           ; #config settings
   238                           
   239  0013                     __initialization:
   240                           
   241                           ; Clear objects allocated to BANK1
   242  0013  1683               	bsf	3,5	;RP0=1, select bank1
   243  0014  1303               	bcf	3,6	;RP1=0, select bank1
   244  0015  01B0               	clrf	__pbssBANK1& (0+127)
   245  0016  01B1               	clrf	(__pbssBANK1+1)& (0+127)
   246  0017  01B2               	clrf	(__pbssBANK1+2)& (0+127)
   247  0018                     end_of_initialization:	
   248                           ;End of C runtime variable initialization code
   249                           
   250  0018                     __end_of__initialization:
   251  0018  0183               	clrf	3
   252  0019  120A  118A  2FE2   	ljmp	_main	;jump to C main() function
   253                           
   254                           	psect	bssBANK1
   255  00B0                     __pbssBANK1:
   256  00B0                     _CCPR:
   257  00B0                     	ds	2
   258  00B2                     _ULTIMO:
   259  00B2                     	ds	1
   260                           
   261                           	psect	cstackBANK1
   262  00A0                     __pcstackBANK1:
   263  00A0                     ??___fltol:
   264                           
   265                           ; 1 bytes @ 0x0
   266  00A0                     	ds	5
   267  00A5                     ?_map:
   268  00A5                     map@x0:	
   269                           ; 2 bytes @ 0x5
   270                           
   271                           
   272                           ; 1 bytes @ 0x5
   273  00A5                     	ds	1
   274  00A6                     map@x1:
   275                           
   276                           ; 1 bytes @ 0x6
   277  00A6                     	ds	1
   278  00A7                     map@y0:
   279                           
   280                           ; 2 bytes @ 0x7
   281  00A7                     	ds	2
   282  00A9                     map@y1:
   283                           
   284                           ; 2 bytes @ 0x9
   285  00A9                     	ds	2
   286  00AB                     ??_isr:
   287                           
   288                           ; 1 bytes @ 0xB
   289  00AB                     	ds	5
   290  00B0                     ??_setup:
   291  00B0                     ??_main:	
   292                           ; 1 bytes @ 0x10
   293                           
   294                           
   295                           	psect	cstackCOMMON
   296  0070                     __pcstackCOMMON:	
   297                           ; 1 bytes @ 0x10
   298                           
   299  0070                     ?_setup:
   300  0070                     ?_isr:	
   301                           ; 1 bytes @ 0x0
   302                           
   303  0070                     ?_main:	
   304                           ; 1 bytes @ 0x0
   305                           
   306  0070                     ?__Umul8_16:	
   307                           ; 1 bytes @ 0x0
   308                           
   309  0070                     ?___xxtofl:	
   310                           ; 2 bytes @ 0x0
   311                           
   312  0070                     __Umul8_16@multiplicand:	
   313                           ; 4 bytes @ 0x0
   314                           
   315  0070                     ___xxtofl@val:	
   316                           ; 1 bytes @ 0x0
   317                           
   318                           
   319                           ; 4 bytes @ 0x0
   320  0070                     	ds	2
   321  0072                     ??__Umul8_16:
   322                           
   323                           ; 1 bytes @ 0x2
   324  0072                     	ds	2
   325  0074                     ??___xxtofl:
   326  0074                     __Umul8_16@product:	
   327                           ; 1 bytes @ 0x4
   328                           
   329                           
   330                           ; 2 bytes @ 0x4
   331  0074                     	ds	2
   332  0076                     __Umul8_16@word_mpld:
   333                           
   334                           ; 2 bytes @ 0x6
   335  0076                     	ds	2
   336  0078                     __Umul8_16@multiplier:
   337  0078                     ___xxtofl@sign:	
   338                           ; 1 bytes @ 0x8
   339                           
   340                           
   341                           ; 1 bytes @ 0x8
   342  0078                     	ds	1
   343  0079                     ___xxtofl@exp:
   344                           
   345                           ; 1 bytes @ 0x9
   346  0079                     	ds	1
   347  007A                     ___xxtofl@arg:
   348                           
   349                           ; 4 bytes @ 0xA
   350  007A                     	ds	4
   351  007E                     ??_map:
   352                           
   353                           	psect	cstackBANK0
   354  0020                     __pcstackBANK0:	
   355                           ; 1 bytes @ 0xE
   356                           
   357  0020                     ?___fldiv:
   358  0020                     ___fldiv@a:	
   359                           ; 4 bytes @ 0x0
   360                           
   361                           
   362                           ; 4 bytes @ 0x0
   363  0020                     	ds	4
   364  0024                     ___fldiv@b:
   365                           
   366                           ; 4 bytes @ 0x4
   367  0024                     	ds	4
   368  0028                     ??___fldiv:
   369                           
   370                           ; 1 bytes @ 0x8
   371  0028                     	ds	5
   372  002D                     ___fldiv@rem:
   373                           
   374                           ; 4 bytes @ 0xD
   375  002D                     	ds	4
   376  0031                     ___fldiv@sign:
   377                           
   378                           ; 1 bytes @ 0x11
   379  0031                     	ds	1
   380  0032                     ___fldiv@new_exp:
   381                           
   382                           ; 2 bytes @ 0x12
   383  0032                     	ds	2
   384  0034                     ___fldiv@grs:
   385                           
   386                           ; 4 bytes @ 0x14
   387  0034                     	ds	4
   388  0038                     ___fldiv@bexp:
   389                           
   390                           ; 1 bytes @ 0x18
   391  0038                     	ds	1
   392  0039                     ___fldiv@aexp:
   393                           
   394                           ; 1 bytes @ 0x19
   395  0039                     	ds	1
   396  003A                     ?___flmul:
   397  003A                     ___flmul@b:	
   398                           ; 4 bytes @ 0x1A
   399                           
   400                           
   401                           ; 4 bytes @ 0x1A
   402  003A                     	ds	4
   403  003E                     ___flmul@a:
   404                           
   405                           ; 4 bytes @ 0x1E
   406  003E                     	ds	4
   407  0042                     ??___flmul:
   408                           
   409                           ; 1 bytes @ 0x22
   410  0042                     	ds	5
   411  0047                     ___flmul@sign:
   412                           
   413                           ; 1 bytes @ 0x27
   414  0047                     	ds	1
   415  0048                     ___flmul@grs:
   416                           
   417                           ; 4 bytes @ 0x28
   418  0048                     	ds	4
   419  004C                     ___flmul@aexp:
   420                           
   421                           ; 1 bytes @ 0x2C
   422  004C                     	ds	1
   423  004D                     ___flmul@bexp:
   424                           
   425                           ; 1 bytes @ 0x2D
   426  004D                     	ds	1
   427  004E                     ___flmul@prod:
   428                           
   429                           ; 4 bytes @ 0x2E
   430  004E                     	ds	4
   431  0052                     ___flmul@temp:
   432                           
   433                           ; 2 bytes @ 0x32
   434  0052                     	ds	2
   435  0054                     ?___fladd:
   436  0054                     ___fladd@b:	
   437                           ; 4 bytes @ 0x34
   438                           
   439                           
   440                           ; 4 bytes @ 0x34
   441  0054                     	ds	4
   442  0058                     ___fladd@a:
   443                           
   444                           ; 4 bytes @ 0x38
   445  0058                     	ds	4
   446  005C                     ??___fladd:
   447                           
   448                           ; 1 bytes @ 0x3C
   449  005C                     	ds	8
   450  0064                     ___fladd@signs:
   451                           
   452                           ; 1 bytes @ 0x44
   453  0064                     	ds	1
   454  0065                     ___fladd@aexp:
   455                           
   456                           ; 1 bytes @ 0x45
   457  0065                     	ds	1
   458  0066                     ___fladd@bexp:
   459                           
   460                           ; 1 bytes @ 0x46
   461  0066                     	ds	1
   462  0067                     ___fladd@grs:
   463                           
   464                           ; 1 bytes @ 0x47
   465  0067                     	ds	1
   466  0068                     ?___fltol:
   467  0068                     ___fltol@f1:	
   468                           ; 4 bytes @ 0x48
   469                           
   470                           
   471                           ; 4 bytes @ 0x48
   472  0068                     	ds	4
   473  006C                     ___fltol@sign1:
   474                           
   475                           ; 1 bytes @ 0x4C
   476  006C                     	ds	1
   477  006D                     ___fltol@exp1:
   478                           
   479                           ; 1 bytes @ 0x4D
   480  006D                     	ds	1
   481  006E                     map@x:
   482                           
   483                           ; 1 bytes @ 0x4E
   484  006E                     	ds	1
   485                           
   486                           	psect	maintext
   487  07E2                     __pmaintext:	
   488 ;;
   489 ;;Main: autosize = 0, tempsize = 0, incstack = 0, save=0
   490 ;;
   491 ;; *************** function _main *****************
   492 ;; Defined at:
   493 ;;		line 72 in file "SLAVE2.c"
   494 ;; Parameters:    Size  Location     Type
   495 ;;		None
   496 ;; Auto vars:     Size  Location     Type
   497 ;;		None
   498 ;; Return value:  Size  Location     Type
   499 ;;                  1    wreg      void 
   500 ;; Registers used:
   501 ;;		wreg, status,2, status,0, pclath, cstack
   502 ;; Tracked objects:
   503 ;;		On entry : B00/0
   504 ;;		On exit  : 0/0
   505 ;;		Unchanged: 0/0
   506 ;; Data sizes:     COMMON   BANK0   BANK1   BANK3   BANK2
   507 ;;      Params:         0       0       0       0       0
   508 ;;      Locals:         0       0       0       0       0
   509 ;;      Temps:          0       0       0       0       0
   510 ;;      Totals:         0       0       0       0       0
   511 ;;Total ram usage:        0 bytes
   512 ;; Hardware stack levels required when called: 5
   513 ;; This function calls:
   514 ;;		_setup
   515 ;; This function is called by:
   516 ;;		Startup code after reset
   517 ;; This function uses a non-reentrant model
   518 ;;
   519                           
   520  07E2                     _main:	
   521                           ;psect for function _main
   522                           
   523  07E2                     l1944:	
   524                           ;incstack = 0
   525                           ; Regs used in _main: [wreg+status,2+status,0+pclath+cstack]
   526                           
   527                           
   528                           ;SLAVE2.c: 73:     setup();
   529  07E2  120A  158A  2562  120A  118A  	fcall	_setup
   530  07E7                     l58:	
   531                           ;SLAVE2.c: 74:     while(1){
   532                           
   533  07E7                     l59:	
   534                           ;SLAVE2.c: 76:     }
   535                           
   536  07E7  2FE7               	goto	l58
   537  07E8  120A  118A  2810   	ljmp	start
   538  07EB                     __end_of_main:
   539                           
   540                           	psect	text1
   541  0D62                     __ptext1:	
   542 ;; *************** function _setup *****************
   543 ;; Defined at:
   544 ;;		line 83 in file "SLAVE2.c"
   545 ;; Parameters:    Size  Location     Type
   546 ;;		None
   547 ;; Auto vars:     Size  Location     Type
   548 ;;		None
   549 ;; Return value:  Size  Location     Type
   550 ;;                  1    wreg      void 
   551 ;; Registers used:
   552 ;;		wreg, status,2, status,0
   553 ;; Tracked objects:
   554 ;;		On entry : 0/0
   555 ;;		On exit  : 0/0
   556 ;;		Unchanged: 0/0
   557 ;; Data sizes:     COMMON   BANK0   BANK1   BANK3   BANK2
   558 ;;      Params:         0       0       0       0       0
   559 ;;      Locals:         0       0       0       0       0
   560 ;;      Temps:          0       0       0       0       0
   561 ;;      Totals:         0       0       0       0       0
   562 ;;Total ram usage:        0 bytes
   563 ;; Hardware stack levels used: 1
   564 ;; Hardware stack levels required when called: 4
   565 ;; This function calls:
   566 ;;		Nothing
   567 ;; This function is called by:
   568 ;;		_main
   569 ;; This function uses a non-reentrant model
   570 ;;
   571                           
   572  0D62                     _setup:	
   573                           ;psect for function _setup
   574                           
   575  0D62                     l1878:	
   576                           ;incstack = 0
   577                           ; Regs used in _setup: [wreg+status,2+status,0]
   578                           
   579                           
   580                           ;SLAVE2.c: 85:     ANSEL = 0;
   581  0D62  1683               	bsf	3,5	;RP0=1, select bank3
   582  0D63  1703               	bsf	3,6	;RP1=1, select bank3
   583  0D64  0188               	clrf	8	;volatile
   584                           
   585                           ;SLAVE2.c: 86:     ANSELH = 0;
   586  0D65  0189               	clrf	9	;volatile
   587  0D66                     l1880:
   588                           
   589                           ;SLAVE2.c: 87:     TRISA = 0b00100000;
   590  0D66  3020               	movlw	32
   591  0D67  1683               	bsf	3,5	;RP0=1, select bank1
   592  0D68  1303               	bcf	3,6	;RP1=0, select bank1
   593  0D69  0085               	movwf	5	;volatile
   594  0D6A                     l1882:
   595                           
   596                           ;SLAVE2.c: 88:     PORTA = 0;
   597  0D6A  1283               	bcf	3,5	;RP0=0, select bank0
   598  0D6B  1303               	bcf	3,6	;RP1=0, select bank0
   599  0D6C  0185               	clrf	5	;volatile
   600  0D6D                     l1884:
   601                           
   602                           ;SLAVE2.c: 92:     OSCCONbits.IRCF = 0b110;
   603  0D6D  1683               	bsf	3,5	;RP0=1, select bank1
   604  0D6E  1303               	bcf	3,6	;RP1=0, select bank1
   605  0D6F  080F               	movf	15,w	;volatile
   606  0D70  398F               	andlw	-113
   607  0D71  3860               	iorlw	96
   608  0D72  008F               	movwf	15	;volatile
   609  0D73                     l1886:
   610                           
   611                           ;SLAVE2.c: 93:     OSCCONbits.SCS = 1;
   612  0D73  140F               	bsf	15,0	;volatile
   613  0D74                     l1888:
   614                           
   615                           ;SLAVE2.c: 97:     TRISCbits.TRISC2 = 1;
   616  0D74  1507               	bsf	7,2	;volatile
   617  0D75                     l1890:
   618                           
   619                           ;SLAVE2.c: 98:     PR2 = 200;
   620  0D75  30C8               	movlw	200
   621  0D76  0092               	movwf	18	;volatile
   622  0D77                     l1892:
   623                           
   624                           ;SLAVE2.c: 101:     CCP1CON = 0;
   625  0D77  1283               	bcf	3,5	;RP0=0, select bank0
   626  0D78  1303               	bcf	3,6	;RP1=0, select bank0
   627  0D79  0197               	clrf	23	;volatile
   628  0D7A                     l1894:
   629                           
   630                           ;SLAVE2.c: 102:     CCP1CONbits.P1M = 0;
   631  0D7A  303F               	movlw	-193
   632  0D7B  0597               	andwf	23,f	;volatile
   633  0D7C                     l1896:
   634                           
   635                           ;SLAVE2.c: 103:     CCP1CONbits.CCP1M = 0b1100;
   636  0D7C  0817               	movf	23,w	;volatile
   637  0D7D  39F0               	andlw	-16
   638  0D7E  380C               	iorlw	12
   639  0D7F  0097               	movwf	23	;volatile
   640  0D80                     l1898:
   641                           
   642                           ;SLAVE2.c: 104:     CCPR1L = 125>>2;
   643  0D80  301F               	movlw	31
   644  0D81  0095               	movwf	21	;volatile
   645  0D82                     l1900:
   646                           
   647                           ;SLAVE2.c: 105:     CCP1CONbits.DC1B = 125 & 0b11;
   648  0D82  0817               	movf	23,w	;volatile
   649  0D83  39CF               	andlw	-49
   650  0D84  3810               	iorlw	16
   651  0D85  0097               	movwf	23	;volatile
   652  0D86                     l1902:
   653                           
   654                           ;SLAVE2.c: 108:     PIR1bits.TMR2IF = 0;
   655  0D86  108C               	bcf	12,1	;volatile
   656  0D87                     l1904:
   657                           
   658                           ;SLAVE2.c: 109:     T2CONbits.T2CKPS = 0b11;
   659  0D87  3003               	movlw	3
   660  0D88  0492               	iorwf	18,f	;volatile
   661  0D89                     l1906:
   662                           
   663                           ;SLAVE2.c: 110:     T2CONbits.TMR2ON = 1;
   664  0D89  1512               	bsf	18,2	;volatile
   665  0D8A                     l64:	
   666                           ;SLAVE2.c: 111:     while(!PIR1bits.TMR2IF);
   667                           
   668  0D8A  1C8C               	btfss	12,1	;volatile
   669  0D8B  2D8D               	goto	u2811
   670  0D8C  2D8E               	goto	u2810
   671  0D8D                     u2811:
   672  0D8D  2D8A               	goto	l64
   673  0D8E                     u2810:
   674  0D8E                     l66:
   675                           
   676                           ;SLAVE2.c: 112:     PIR1bits.TMR2IF = 0;
   677  0D8E  108C               	bcf	12,1	;volatile
   678  0D8F                     l1908:
   679                           
   680                           ;SLAVE2.c: 115:     TRISC = 0b00011000;
   681  0D8F  3018               	movlw	24
   682  0D90  1683               	bsf	3,5	;RP0=1, select bank1
   683  0D91  1303               	bcf	3,6	;RP1=0, select bank1
   684  0D92  0087               	movwf	7	;volatile
   685  0D93                     l1910:
   686                           
   687                           ;SLAVE2.c: 116:     PORTC = 0;
   688  0D93  1283               	bcf	3,5	;RP0=0, select bank0
   689  0D94  1303               	bcf	3,6	;RP1=0, select bank0
   690  0D95  0187               	clrf	7	;volatile
   691  0D96                     l1912:
   692                           
   693                           ;SLAVE2.c: 118:     SSPCONbits.SSPM = 0b0100;
   694  0D96  0814               	movf	20,w	;volatile
   695  0D97  39F0               	andlw	-16
   696  0D98  3804               	iorlw	4
   697  0D99  0094               	movwf	20	;volatile
   698  0D9A                     l1914:
   699                           
   700                           ;SLAVE2.c: 119:     SSPCONbits.CKP = 0;
   701  0D9A  1214               	bcf	20,4	;volatile
   702  0D9B                     l1916:
   703                           
   704                           ;SLAVE2.c: 120:     SSPCONbits.SSPEN = 1;
   705  0D9B  1694               	bsf	20,5	;volatile
   706  0D9C                     l1918:
   707                           
   708                           ;SLAVE2.c: 122:     SSPSTATbits.CKE = 1;
   709  0D9C  1683               	bsf	3,5	;RP0=1, select bank1
   710  0D9D  1303               	bcf	3,6	;RP1=0, select bank1
   711  0D9E  1714               	bsf	20,6	;volatile
   712  0D9F                     l1920:
   713                           
   714                           ;SLAVE2.c: 123:     SSPSTATbits.SMP = 0;
   715  0D9F  1394               	bcf	20,7	;volatile
   716  0DA0                     l1922:
   717                           
   718                           ;SLAVE2.c: 126:     PIR1bits.SSPIF = 0;
   719  0DA0  1283               	bcf	3,5	;RP0=0, select bank0
   720  0DA1  1303               	bcf	3,6	;RP1=0, select bank0
   721  0DA2  118C               	bcf	12,3	;volatile
   722  0DA3                     l1924:
   723                           
   724                           ;SLAVE2.c: 127:     PIE1bits.SSPIE = 1;
   725  0DA3  1683               	bsf	3,5	;RP0=1, select bank1
   726  0DA4  1303               	bcf	3,6	;RP1=0, select bank1
   727  0DA5  158C               	bsf	12,3	;volatile
   728  0DA6                     l1926:
   729                           
   730                           ;SLAVE2.c: 128:     INTCONbits.GIE = 1;
   731  0DA6  178B               	bsf	11,7	;volatile
   732  0DA7                     l1928:
   733                           
   734                           ;SLAVE2.c: 129:     INTCONbits.PEIE = 1;
   735  0DA7  170B               	bsf	11,6	;volatile
   736  0DA8                     l67:
   737  0DA8  0008               	return
   738  0DA9                     __end_of_setup:
   739                           
   740                           	psect	text2
   741  0DA9                     __ptext2:	
   742 ;; *************** function _isr *****************
   743 ;; Defined at:
   744 ;;		line 53 in file "SLAVE2.c"
   745 ;; Parameters:    Size  Location     Type
   746 ;;		None
   747 ;; Auto vars:     Size  Location     Type
   748 ;;		None
   749 ;; Return value:  Size  Location     Type
   750 ;;                  1    wreg      void 
   751 ;; Registers used:
   752 ;;		wreg, status,2, status,0, btemp+1, pclath, cstack
   753 ;; Tracked objects:
   754 ;;		On entry : 0/0
   755 ;;		On exit  : 0/0
   756 ;;		Unchanged: 0/0
   757 ;; Data sizes:     COMMON   BANK0   BANK1   BANK3   BANK2
   758 ;;      Params:         0       0       0       0       0
   759 ;;      Locals:         0       0       0       0       0
   760 ;;      Temps:          0       0       5       0       0
   761 ;;      Totals:         0       0       5       0       0
   762 ;;Total ram usage:        5 bytes
   763 ;; Hardware stack levels used: 1
   764 ;; Hardware stack levels required when called: 3
   765 ;; This function calls:
   766 ;;		_map
   767 ;; This function is called by:
   768 ;;		Interrupt level 1
   769 ;; This function uses a non-reentrant model
   770 ;;
   771                           
   772  0DA9                     _isr:	
   773                           ;psect for function _isr
   774                           
   775  0DA9                     i1l1930:
   776                           
   777                           ;SLAVE2.c: 55:     if (PIR1bits.SSPIF){
   778  0DA9  1283               	bcf	3,5	;RP0=0, select bank0
   779  0DAA  1303               	bcf	3,6	;RP1=0, select bank0
   780  0DAB  1D8C               	btfss	12,3	;volatile
   781  0DAC  2DAE               	goto	u282_21
   782  0DAD  2DAF               	goto	u282_20
   783  0DAE                     u282_21:
   784  0DAE  2DED               	goto	i1l53
   785  0DAF                     u282_20:
   786  0DAF                     i1l1932:
   787                           
   788                           ;SLAVE2.c: 58:         if (ULTIMO != 0xFFF){
   789  0DAF  0813               	movf	19,w	;volatile
   790  0DB0  1683               	bsf	3,5	;RP0=1, select bank1
   791  0DB1  1303               	bcf	3,6	;RP1=0, select bank1
   792  0DB2  00AB               	movwf	??_isr^(0+128)
   793  0DB3  082B               	movf	??_isr^(0+128),w
   794  0DB4  00B2               	movwf	_ULTIMO^(0+128)
   795  0DB5                     i1l1934:
   796                           
   797                           ;SLAVE2.c: 59:         CCPR = map(ULTIMO, 0, 255, 0, 804);
   798  0DB5  01A5               	clrf	map@x0^(0+128)
   799  0DB6  30FF               	movlw	255
   800  0DB7  00AB               	movwf	??_isr^(0+128)
   801  0DB8  082B               	movf	??_isr^(0+128),w
   802  0DB9  00A6               	movwf	map@x1^(0+128)
   803  0DBA  3000               	movlw	0
   804  0DBB  00A7               	movwf	map@y0^(0+128)
   805  0DBC  00A8               	movwf	(map@y0+1)^(0+128)
   806  0DBD  3024               	movlw	36
   807  0DBE  00A9               	movwf	map@y1^(0+128)
   808  0DBF  3003               	movlw	3
   809  0DC0  00AA               	movwf	(map@y1^(0+128)+1)
   810  0DC1  0832               	movf	_ULTIMO^(0+128),w
   811  0DC2  120A  158A  2694  120A  158A  	fcall	_map
   812  0DC7  1683               	bsf	3,5	;RP0=1, select bank1
   813  0DC8  1303               	bcf	3,6	;RP1=0, select bank1
   814  0DC9  0826               	movf	(?_map+1)^(0+128),w
   815  0DCA  00B1               	movwf	(_CCPR+1)^(0+128)
   816  0DCB  0825               	movf	?_map^(0+128),w
   817  0DCC  00B0               	movwf	_CCPR^(0+128)
   818  0DCD                     i1l1936:
   819                           
   820                           ;SLAVE2.c: 60:         CCPR1L = (uint8_t)(CCPR>>2);
   821  0DCD  0831               	movf	(_CCPR+1)^(0+128),w
   822  0DCE  00AC               	movwf	(??_isr^(0+128)+1)
   823  0DCF  0830               	movf	_CCPR^(0+128),w
   824  0DD0  00AB               	movwf	??_isr^(0+128)
   825  0DD1  1003               	clrc
   826  0DD2  0CAC               	rrf	(??_isr^(0+128)+1),f
   827  0DD3  0CAB               	rrf	??_isr^(0+128),f
   828  0DD4  1003               	clrc
   829  0DD5  0CAC               	rrf	(??_isr^(0+128)+1),f
   830  0DD6  0CAB               	rrf	??_isr^(0+128),f
   831  0DD7  082B               	movf	??_isr^(0+128),w
   832  0DD8  1283               	bcf	3,5	;RP0=0, select bank0
   833  0DD9  1303               	bcf	3,6	;RP1=0, select bank0
   834  0DDA  0095               	movwf	21	;volatile
   835  0DDB                     i1l1938:
   836                           
   837                           ;SLAVE2.c: 61:         CCP1CONbits.DC1B = CCPR & 0b11;
   838  0DDB  1683               	bsf	3,5	;RP0=1, select bank1
   839  0DDC  1303               	bcf	3,6	;RP1=0, select bank1
   840  0DDD  0830               	movf	_CCPR^(0+128),w
   841  0DDE  3903               	andlw	3
   842  0DDF  00AB               	movwf	??_isr^(0+128)
   843  0DE0  0EAB               	swapf	??_isr^(0+128),f
   844  0DE1  1283               	bcf	3,5	;RP0=0, select bank0
   845  0DE2  1303               	bcf	3,6	;RP1=0, select bank0
   846  0DE3  0817               	movf	23,w	;volatile
   847  0DE4  1683               	bsf	3,5	;RP0=1, select bank1
   848  0DE5  1303               	bcf	3,6	;RP1=0, select bank1
   849  0DE6  062B               	xorwf	??_isr^(0+128),w
   850  0DE7  39CF               	andlw	-49
   851  0DE8  062B               	xorwf	??_isr^(0+128),w
   852  0DE9  1283               	bcf	3,5	;RP0=0, select bank0
   853  0DEA  1303               	bcf	3,6	;RP1=0, select bank0
   854  0DEB  0097               	movwf	23	;volatile
   855  0DEC                     i1l1940:
   856                           
   857                           ;SLAVE2.c: 63:         PIR1bits.SSPIF = 0;
   858  0DEC  118C               	bcf	12,3	;volatile
   859  0DED                     i1l53:
   860  0DED  1683               	bsf	3,5	;RP0=1, select bank1
   861  0DEE  1303               	bcf	3,6	;RP1=0, select bank1
   862  0DEF  082F               	movf	(??_isr+4)^(0+128),w
   863  0DF0  00FF               	movwf	btemp+1
   864  0DF1  082E               	movf	(??_isr+3)^(0+128),w
   865  0DF2  008A               	movwf	10
   866  0DF3  0E2D               	swapf	(??_isr+2)^(0+128),w
   867  0DF4  0083               	movwf	3
   868  0DF5  0EFE               	swapf	btemp,f
   869  0DF6  0E7E               	swapf	btemp,w
   870  0DF7  0009               	retfie
   871  0DF8                     __end_of_isr:
   872                           
   873                           	psect	intentry
   874  0004                     __pintentry:	
   875                           ;incstack = 0
   876                           ; Regs used in _isr: [wreg+status,2+status,0+btemp+1+pclath+cstack]
   877                           
   878  0004                     interrupt_function:
   879  007E                     saved_w	set	btemp
   880  0004  00FE               	movwf	btemp
   881  0005  0E03               	swapf	3,w
   882  0006  1683               	bsf	3,5	;RP0=1, select bank1
   883  0007  1303               	bcf	3,6	;RP1=0, select bank1
   884  0008  00AD               	movwf	(??_isr+2)^(0+128)
   885  0009  080A               	movf	10,w
   886  000A  00AE               	movwf	(??_isr+3)^(0+128)
   887  000B  087F               	movf	btemp+1,w
   888  000C  00AF               	movwf	(??_isr+4)^(0+128)
   889  000D  120A  158A  2DA9   	ljmp	_isr
   890                           
   891                           	psect	text3
   892  0E94                     __ptext3:	
   893 ;; *************** function _map *****************
   894 ;; Defined at:
   895 ;;		line 135 in file "SLAVE2.c"
   896 ;; Parameters:    Size  Location     Type
   897 ;;  x               1    wreg     unsigned char 
   898 ;;  x0              1    5[BANK1 ] unsigned char 
   899 ;;  x1              1    6[BANK1 ] unsigned char 
   900 ;;  y0              2    7[BANK1 ] unsigned short 
   901 ;;  y1              2    9[BANK1 ] unsigned short 
   902 ;; Auto vars:     Size  Location     Type
   903 ;;  x               1   78[BANK0 ] unsigned char 
   904 ;; Return value:  Size  Location     Type
   905 ;;                  2    5[BANK1 ] unsigned short 
   906 ;; Registers used:
   907 ;;		wreg, status,2, status,0, btemp+1, pclath, cstack
   908 ;; Tracked objects:
   909 ;;		On entry : 0/0
   910 ;;		On exit  : 0/0
   911 ;;		Unchanged: 0/0
   912 ;; Data sizes:     COMMON   BANK0   BANK1   BANK3   BANK2
   913 ;;      Params:         0       0       6       0       0
   914 ;;      Locals:         0       1       0       0       0
   915 ;;      Temps:          0       0       0       0       0
   916 ;;      Totals:         0       1       6       0       0
   917 ;;Total ram usage:        7 bytes
   918 ;; Hardware stack levels used: 1
   919 ;; Hardware stack levels required when called: 2
   920 ;; This function calls:
   921 ;;		___fladd
   922 ;;		___fldiv
   923 ;;		___flmul
   924 ;;		___fltol
   925 ;;		___xxtofl
   926 ;; This function is called by:
   927 ;;		_isr
   928 ;; This function uses a non-reentrant model
   929 ;;
   930                           
   931  0E94                     _map:	
   932                           ;psect for function _map
   933                           
   934                           
   935                           ;incstack = 0
   936                           ; Regs used in _map: [wreg+status,2+status,0+btemp+1+pclath+cstack]
   937                           ;map@x stored from wreg
   938  0E94  1283               	bcf	3,5	;RP0=0, select bank0
   939  0E95  1303               	bcf	3,6	;RP1=0, select bank0
   940  0E96  00EE               	movwf	map@x
   941  0E97                     i1l1874:
   942                           
   943                           ;SLAVE2.c: 135: unsigned short map(uint8_t x, uint8_t x0, uint8_t x1,;SLAVE2.c: 136:    
      +                                   unsigned short y0, unsigned short y1){;SLAVE2.c: 137:     return (unsigned shor
      +                          t)(y0+((float)(y1-y0)/(x1-x0))*(x-x0));
   944  0E97  1683               	bsf	3,5	;RP0=1, select bank1
   945  0E98  1303               	bcf	3,6	;RP1=0, select bank1
   946  0E99  0827               	movf	map@y0^(0+128),w
   947  0E9A  00F0               	movwf	___xxtofl@val
   948  0E9B  0828               	movf	(map@y0+1)^(0+128),w
   949  0E9C  00F1               	movwf	___xxtofl@val+1
   950  0E9D  01F2               	clrf	___xxtofl@val+2
   951  0E9E  01F3               	clrf	___xxtofl@val+3
   952  0E9F  3000               	movlw	0
   953  0EA0  120A  158A  2746  120A  158A  	fcall	___xxtofl
   954  0EA5  0873               	movf	?___xxtofl+3,w
   955  0EA6  1283               	bcf	3,5	;RP0=0, select bank0
   956  0EA7  1303               	bcf	3,6	;RP1=0, select bank0
   957  0EA8  00DB               	movwf	___fladd@a+3
   958  0EA9  0872               	movf	?___xxtofl+2,w
   959  0EAA  00DA               	movwf	___fladd@a+2
   960  0EAB  0871               	movf	?___xxtofl+1,w
   961  0EAC  00D9               	movwf	___fladd@a+1
   962  0EAD  0870               	movf	?___xxtofl,w
   963  0EAE  00D8               	movwf	___fladd@a
   964  0EAF  1683               	bsf	3,5	;RP0=1, select bank1
   965  0EB0  1303               	bcf	3,6	;RP1=0, select bank1
   966  0EB1  0827               	movf	map@y0^(0+128),w
   967  0EB2  0229               	subwf	map@y1^(0+128),w
   968  0EB3  00F0               	movwf	___xxtofl@val
   969  0EB4  0828               	movf	(map@y0+1)^(0+128),w
   970  0EB5  1C03               	skipc
   971  0EB6  0A28               	incf	(map@y0+1)^(0+128),w
   972  0EB7  022A               	subwf	(map@y1+1)^(0+128),w
   973  0EB8  00F1               	movwf	___xxtofl@val+1
   974  0EB9  01F2               	clrf	___xxtofl@val+2
   975  0EBA  01F3               	clrf	___xxtofl@val+3
   976  0EBB  3000               	movlw	0
   977  0EBC  120A  158A  2746  120A  158A  	fcall	___xxtofl
   978  0EC1  0873               	movf	?___xxtofl+3,w
   979  0EC2  1283               	bcf	3,5	;RP0=0, select bank0
   980  0EC3  1303               	bcf	3,6	;RP1=0, select bank0
   981  0EC4  00A7               	movwf	___fldiv@b+3
   982  0EC5  0872               	movf	?___xxtofl+2,w
   983  0EC6  00A6               	movwf	___fldiv@b+2
   984  0EC7  0871               	movf	?___xxtofl+1,w
   985  0EC8  00A5               	movwf	___fldiv@b+1
   986  0EC9  0870               	movf	?___xxtofl,w
   987  0ECA  00A4               	movwf	___fldiv@b
   988  0ECB  1683               	bsf	3,5	;RP0=1, select bank1
   989  0ECC  1303               	bcf	3,6	;RP1=0, select bank1
   990  0ECD  0825               	movf	map@x0^(0+128),w
   991  0ECE  0226               	subwf	map@x1^(0+128),w
   992  0ECF  00F0               	movwf	___xxtofl@val
   993  0ED0  01F1               	clrf	___xxtofl@val+1
   994  0ED1  1C03               	skipc
   995  0ED2  03F1               	decf	___xxtofl@val+1,f
   996  0ED3  01F2               	clrf	___xxtofl@val+2
   997  0ED4  1BF1               	btfsc	___xxtofl@val+1,7
   998  0ED5  03F2               	decf	___xxtofl@val+2,f
   999  0ED6  0872               	movf	___xxtofl@val+2,w
  1000  0ED7  00F3               	movwf	___xxtofl@val+3
  1001  0ED8  3001               	movlw	1
  1002  0ED9  120A  158A  2746  120A  158A  	fcall	___xxtofl
  1003  0EDE  0873               	movf	?___xxtofl+3,w
  1004  0EDF  1283               	bcf	3,5	;RP0=0, select bank0
  1005  0EE0  1303               	bcf	3,6	;RP1=0, select bank0
  1006  0EE1  00A3               	movwf	___fldiv@a+3
  1007  0EE2  0872               	movf	?___xxtofl+2,w
  1008  0EE3  00A2               	movwf	___fldiv@a+2
  1009  0EE4  0871               	movf	?___xxtofl+1,w
  1010  0EE5  00A1               	movwf	___fldiv@a+1
  1011  0EE6  0870               	movf	?___xxtofl,w
  1012  0EE7  00A0               	movwf	___fldiv@a
  1013  0EE8  120A  118A  2605  120A  158A  	fcall	___fldiv
  1014  0EED  1283               	bcf	3,5	;RP0=0, select bank0
  1015  0EEE  1303               	bcf	3,6	;RP1=0, select bank0
  1016  0EEF  0823               	movf	?___fldiv+3,w
  1017  0EF0  00C1               	movwf	___flmul@a+3
  1018  0EF1  0822               	movf	?___fldiv+2,w
  1019  0EF2  00C0               	movwf	___flmul@a+2
  1020  0EF3  0821               	movf	?___fldiv+1,w
  1021  0EF4  00BF               	movwf	___flmul@a+1
  1022  0EF5  0820               	movf	?___fldiv,w
  1023  0EF6  00BE               	movwf	___flmul@a
  1024  0EF7  1683               	bsf	3,5	;RP0=1, select bank1
  1025  0EF8  1303               	bcf	3,6	;RP1=0, select bank1
  1026  0EF9  0825               	movf	map@x0^(0+128),w
  1027  0EFA  1283               	bcf	3,5	;RP0=0, select bank0
  1028  0EFB  1303               	bcf	3,6	;RP1=0, select bank0
  1029  0EFC  026E               	subwf	map@x,w
  1030  0EFD  00F0               	movwf	___xxtofl@val
  1031  0EFE  01F1               	clrf	___xxtofl@val+1
  1032  0EFF  1C03               	skipc
  1033  0F00  03F1               	decf	___xxtofl@val+1,f
  1034  0F01  01F2               	clrf	___xxtofl@val+2
  1035  0F02  1BF1               	btfsc	___xxtofl@val+1,7
  1036  0F03  03F2               	decf	___xxtofl@val+2,f
  1037  0F04  0872               	movf	___xxtofl@val+2,w
  1038  0F05  00F3               	movwf	___xxtofl@val+3
  1039  0F06  3001               	movlw	1
  1040  0F07  120A  158A  2746  120A  158A  	fcall	___xxtofl
  1041  0F0C  0873               	movf	?___xxtofl+3,w
  1042  0F0D  1283               	bcf	3,5	;RP0=0, select bank0
  1043  0F0E  1303               	bcf	3,6	;RP1=0, select bank0
  1044  0F0F  00BD               	movwf	___flmul@b+3
  1045  0F10  0872               	movf	?___xxtofl+2,w
  1046  0F11  00BC               	movwf	___flmul@b+2
  1047  0F12  0871               	movf	?___xxtofl+1,w
  1048  0F13  00BB               	movwf	___flmul@b+1
  1049  0F14  0870               	movf	?___xxtofl,w
  1050  0F15  00BA               	movwf	___flmul@b
  1051  0F16  120A  118A  201C  120A  158A  	fcall	___flmul
  1052  0F1B  1283               	bcf	3,5	;RP0=0, select bank0
  1053  0F1C  1303               	bcf	3,6	;RP1=0, select bank0
  1054  0F1D  083D               	movf	?___flmul+3,w
  1055  0F1E  00D7               	movwf	___fladd@b+3
  1056  0F1F  083C               	movf	?___flmul+2,w
  1057  0F20  00D6               	movwf	___fladd@b+2
  1058  0F21  083B               	movf	?___flmul+1,w
  1059  0F22  00D5               	movwf	___fladd@b+1
  1060  0F23  083A               	movf	?___flmul,w
  1061  0F24  00D4               	movwf	___fladd@b
  1062  0F25  120A  118A  237D  120A  158A  	fcall	___fladd
  1063  0F2A  1283               	bcf	3,5	;RP0=0, select bank0
  1064  0F2B  1303               	bcf	3,6	;RP1=0, select bank0
  1065  0F2C  0857               	movf	?___fladd+3,w
  1066  0F2D  00EB               	movwf	___fltol@f1+3
  1067  0F2E  0856               	movf	?___fladd+2,w
  1068  0F2F  00EA               	movwf	___fltol@f1+2
  1069  0F30  0855               	movf	?___fladd+1,w
  1070  0F31  00E9               	movwf	___fltol@f1+1
  1071  0F32  0854               	movf	?___fladd,w
  1072  0F33  00E8               	movwf	___fltol@f1
  1073  0F34  120A  158A  25F8  120A  158A  	fcall	___fltol
  1074  0F39  1283               	bcf	3,5	;RP0=0, select bank0
  1075  0F3A  1303               	bcf	3,6	;RP1=0, select bank0
  1076  0F3B  0869               	movf	?___fltol+1,w
  1077  0F3C  1683               	bsf	3,5	;RP0=1, select bank1
  1078  0F3D  1303               	bcf	3,6	;RP1=0, select bank1
  1079  0F3E  00A6               	movwf	(?_map+1)^(0+128)
  1080  0F3F  1283               	bcf	3,5	;RP0=0, select bank0
  1081  0F40  1303               	bcf	3,6	;RP1=0, select bank0
  1082  0F41  0868               	movf	?___fltol,w
  1083  0F42  1683               	bsf	3,5	;RP0=1, select bank1
  1084  0F43  1303               	bcf	3,6	;RP1=0, select bank1
  1085  0F44  00A5               	movwf	?_map^(0+128)
  1086  0F45                     i1l70:
  1087  0F45  0008               	return
  1088  0F46                     __end_of_map:
  1089                           
  1090                           	psect	text4
  1091  0F46                     __ptext4:	
  1092 ;; *************** function ___xxtofl *****************
  1093 ;; Defined at:
  1094 ;;		line 10 in file "C:\Program Files\Microchip\xc8\v2.35\pic\sources\c90\common\xxtofl.c"
  1095 ;; Parameters:    Size  Location     Type
  1096 ;;  sign            1    wreg     unsigned char 
  1097 ;;  val             4    0[COMMON] long 
  1098 ;; Auto vars:     Size  Location     Type
  1099 ;;  sign            1    8[COMMON] unsigned char 
  1100 ;;  arg             4   10[COMMON] unsigned long 
  1101 ;;  exp             1    9[COMMON] unsigned char 
  1102 ;; Return value:  Size  Location     Type
  1103 ;;                  4    0[COMMON] unsigned char 
  1104 ;; Registers used:
  1105 ;;		wreg, status,2, status,0
  1106 ;; Tracked objects:
  1107 ;;		On entry : 0/0
  1108 ;;		On exit  : 0/0
  1109 ;;		Unchanged: 0/0
  1110 ;; Data sizes:     COMMON   BANK0   BANK1   BANK3   BANK2
  1111 ;;      Params:         4       0       0       0       0
  1112 ;;      Locals:         6       0       0       0       0
  1113 ;;      Temps:          4       0       0       0       0
  1114 ;;      Totals:        14       0       0       0       0
  1115 ;;Total ram usage:       14 bytes
  1116 ;; Hardware stack levels used: 1
  1117 ;; This function calls:
  1118 ;;		Nothing
  1119 ;; This function is called by:
  1120 ;;		_map
  1121 ;; This function uses a non-reentrant model
  1122 ;;
  1123                           
  1124  0F46                     ___xxtofl:	
  1125                           ;psect for function ___xxtofl
  1126                           
  1127                           
  1128                           ;incstack = 0
  1129                           ; Regs used in ___xxtofl: [wreg+status,2+status,0]
  1130                           ;___xxtofl@sign stored from wreg
  1131  0F46  00F8               	movwf	___xxtofl@sign
  1132  0F47                     i1l1830:
  1133  0F47  0878               	movf	___xxtofl@sign,w
  1134  0F48  1903               	btfsc	3,2
  1135  0F49  2F4B               	goto	u267_21
  1136  0F4A  2F4C               	goto	u267_20
  1137  0F4B                     u267_21:
  1138  0F4B  2F60               	goto	i1l1836
  1139  0F4C                     u267_20:
  1140  0F4C                     i1l1832:
  1141  0F4C  1FF3               	btfss	___xxtofl@val+3,7
  1142  0F4D  2F4F               	goto	u268_21
  1143  0F4E  2F50               	goto	u268_20
  1144  0F4F                     u268_21:
  1145  0F4F  2F60               	goto	i1l1836
  1146  0F50                     u268_20:
  1147  0F50                     i1l1834:
  1148  0F50  0970               	comf	___xxtofl@val,w
  1149  0F51  00FA               	movwf	___xxtofl@arg
  1150  0F52  0971               	comf	___xxtofl@val+1,w
  1151  0F53  00FB               	movwf	___xxtofl@arg+1
  1152  0F54  0972               	comf	___xxtofl@val+2,w
  1153  0F55  00FC               	movwf	___xxtofl@arg+2
  1154  0F56  0973               	comf	___xxtofl@val+3,w
  1155  0F57  00FD               	movwf	___xxtofl@arg+3
  1156  0F58  0AFA               	incf	___xxtofl@arg,f
  1157  0F59  1903               	skipnz
  1158  0F5A  0AFB               	incf	___xxtofl@arg+1,f
  1159  0F5B  1903               	skipnz
  1160  0F5C  0AFC               	incf	___xxtofl@arg+2,f
  1161  0F5D  1903               	skipnz
  1162  0F5E  0AFD               	incf	___xxtofl@arg+3,f
  1163  0F5F  2F68               	goto	i1l589
  1164  0F60                     i1l1836:
  1165  0F60  0873               	movf	___xxtofl@val+3,w
  1166  0F61  00FD               	movwf	___xxtofl@arg+3
  1167  0F62  0872               	movf	___xxtofl@val+2,w
  1168  0F63  00FC               	movwf	___xxtofl@arg+2
  1169  0F64  0871               	movf	___xxtofl@val+1,w
  1170  0F65  00FB               	movwf	___xxtofl@arg+1
  1171  0F66  0870               	movf	___xxtofl@val,w
  1172  0F67  00FA               	movwf	___xxtofl@arg
  1173  0F68                     i1l589:
  1174  0F68  0873               	movf	___xxtofl@val+3,w
  1175  0F69  0472               	iorwf	___xxtofl@val+2,w
  1176  0F6A  0471               	iorwf	___xxtofl@val+1,w
  1177  0F6B  0470               	iorwf	___xxtofl@val,w
  1178  0F6C  1D03               	skipz
  1179  0F6D  2F6F               	goto	u269_21
  1180  0F6E  2F70               	goto	u269_20
  1181  0F6F                     u269_21:
  1182  0F6F  2F79               	goto	i1l1842
  1183  0F70                     u269_20:
  1184  0F70                     i1l1838:
  1185  0F70  3000               	movlw	0
  1186  0F71  00F3               	movwf	?___xxtofl+3
  1187  0F72  3000               	movlw	0
  1188  0F73  00F2               	movwf	?___xxtofl+2
  1189  0F74  3000               	movlw	0
  1190  0F75  00F1               	movwf	?___xxtofl+1
  1191  0F76  3000               	movlw	0
  1192  0F77  00F0               	movwf	?___xxtofl
  1193  0F78  2FFF               	goto	i1l591
  1194  0F79                     i1l1842:
  1195  0F79  3096               	movlw	150
  1196  0F7A  00F4               	movwf	??___xxtofl
  1197  0F7B  0874               	movf	??___xxtofl,w
  1198  0F7C  00F9               	movwf	___xxtofl@exp
  1199  0F7D  2F8B               	goto	i1l1846
  1200  0F7E                     i1l1844:
  1201  0F7E  3001               	movlw	1
  1202  0F7F  00F4               	movwf	??___xxtofl
  1203  0F80  0874               	movf	??___xxtofl,w
  1204  0F81  07F9               	addwf	___xxtofl@exp,f
  1205  0F82  3001               	movlw	1
  1206  0F83                     u270_25:
  1207  0F83  1003               	clrc
  1208  0F84  0CFD               	rrf	___xxtofl@arg+3,f
  1209  0F85  0CFC               	rrf	___xxtofl@arg+2,f
  1210  0F86  0CFB               	rrf	___xxtofl@arg+1,f
  1211  0F87  0CFA               	rrf	___xxtofl@arg,f
  1212  0F88  3EFF               	addlw	-1
  1213  0F89  1D03               	skipz
  1214  0F8A  2F83               	goto	u270_25
  1215  0F8B                     i1l1846:
  1216  0F8B  30FE               	movlw	254
  1217  0F8C  057D               	andwf	___xxtofl@arg+3,w
  1218  0F8D  1D03               	btfss	3,2
  1219  0F8E  2F90               	goto	u271_21
  1220  0F8F  2F91               	goto	u271_20
  1221  0F90                     u271_21:
  1222  0F90  2F7E               	goto	i1l1844
  1223  0F91                     u271_20:
  1224  0F91  2FAD               	goto	i1l595
  1225  0F92                     i1l1848:
  1226  0F92  3001               	movlw	1
  1227  0F93  00F4               	movwf	??___xxtofl
  1228  0F94  0874               	movf	??___xxtofl,w
  1229  0F95  07F9               	addwf	___xxtofl@exp,f
  1230  0F96                     i1l1850:
  1231  0F96  3001               	movlw	1
  1232  0F97  07FA               	addwf	___xxtofl@arg,f
  1233  0F98  3000               	movlw	0
  1234  0F99  1803               	skipnc
  1235  0F9A  3001               	movlw	1
  1236  0F9B  07FB               	addwf	___xxtofl@arg+1,f
  1237  0F9C  3000               	movlw	0
  1238  0F9D  1803               	skipnc
  1239  0F9E  3001               	movlw	1
  1240  0F9F  07FC               	addwf	___xxtofl@arg+2,f
  1241  0FA0  3000               	movlw	0
  1242  0FA1  1803               	skipnc
  1243  0FA2  3001               	movlw	1
  1244  0FA3  07FD               	addwf	___xxtofl@arg+3,f
  1245  0FA4                     i1l1852:
  1246  0FA4  3001               	movlw	1
  1247  0FA5                     u272_25:
  1248  0FA5  1003               	clrc
  1249  0FA6  0CFD               	rrf	___xxtofl@arg+3,f
  1250  0FA7  0CFC               	rrf	___xxtofl@arg+2,f
  1251  0FA8  0CFB               	rrf	___xxtofl@arg+1,f
  1252  0FA9  0CFA               	rrf	___xxtofl@arg,f
  1253  0FAA  3EFF               	addlw	-1
  1254  0FAB  1D03               	skipz
  1255  0FAC  2FA5               	goto	u272_25
  1256  0FAD                     i1l595:
  1257  0FAD  30FF               	movlw	255
  1258  0FAE  057D               	andwf	___xxtofl@arg+3,w
  1259  0FAF  1D03               	btfss	3,2
  1260  0FB0  2FB2               	goto	u273_21
  1261  0FB1  2FB3               	goto	u273_20
  1262  0FB2                     u273_21:
  1263  0FB2  2F92               	goto	i1l1848
  1264  0FB3                     u273_20:
  1265  0FB3  2FBF               	goto	i1l1856
  1266  0FB4                     i1l1854:
  1267  0FB4  3001               	movlw	1
  1268  0FB5  02F9               	subwf	___xxtofl@exp,f
  1269  0FB6  3001               	movlw	1
  1270  0FB7  00F4               	movwf	??___xxtofl
  1271  0FB8                     u274_25:
  1272  0FB8  1003               	clrc
  1273  0FB9  0DFA               	rlf	___xxtofl@arg,f
  1274  0FBA  0DFB               	rlf	___xxtofl@arg+1,f
  1275  0FBB  0DFC               	rlf	___xxtofl@arg+2,f
  1276  0FBC  0DFD               	rlf	___xxtofl@arg+3,f
  1277  0FBD  0BF4               	decfsz	??___xxtofl,f
  1278  0FBE  2FB8               	goto	u274_25
  1279  0FBF                     i1l1856:
  1280  0FBF  1BFC               	btfsc	___xxtofl@arg+2,7
  1281  0FC0  2FC2               	goto	u275_21
  1282  0FC1  2FC3               	goto	u275_20
  1283  0FC2                     u275_21:
  1284  0FC2  2FC9               	goto	i1l602
  1285  0FC3                     u275_20:
  1286  0FC3                     i1l1858:
  1287  0FC3  3002               	movlw	2
  1288  0FC4  0279               	subwf	___xxtofl@exp,w
  1289  0FC5  1803               	skipnc
  1290  0FC6  2FC8               	goto	u276_21
  1291  0FC7  2FC9               	goto	u276_20
  1292  0FC8                     u276_21:
  1293  0FC8  2FB4               	goto	i1l1854
  1294  0FC9                     u276_20:
  1295  0FC9                     i1l602:
  1296  0FC9  1879               	btfsc	___xxtofl@exp,0
  1297  0FCA  2FCC               	goto	u277_21
  1298  0FCB  2FCD               	goto	u277_20
  1299  0FCC                     u277_21:
  1300  0FCC  2FD5               	goto	i1l603
  1301  0FCD                     u277_20:
  1302  0FCD                     i1l1860:
  1303  0FCD  30FF               	movlw	255
  1304  0FCE  05FA               	andwf	___xxtofl@arg,f
  1305  0FCF  30FF               	movlw	255
  1306  0FD0  05FB               	andwf	___xxtofl@arg+1,f
  1307  0FD1  307F               	movlw	127
  1308  0FD2  05FC               	andwf	___xxtofl@arg+2,f
  1309  0FD3  30FF               	movlw	255
  1310  0FD4  05FD               	andwf	___xxtofl@arg+3,f
  1311  0FD5                     i1l603:
  1312  0FD5  1003               	clrc
  1313  0FD6  0CF9               	rrf	___xxtofl@exp,f
  1314  0FD7                     i1l1862:
  1315  0FD7  0879               	movf	___xxtofl@exp,w
  1316  0FD8  00F4               	movwf	??___xxtofl
  1317  0FD9  01F5               	clrf	??___xxtofl+1
  1318  0FDA  01F6               	clrf	??___xxtofl+2
  1319  0FDB  01F7               	clrf	??___xxtofl+3
  1320  0FDC  3018               	movlw	24
  1321  0FDD                     u278_25:
  1322  0FDD  1003               	clrc
  1323  0FDE  0DF4               	rlf	??___xxtofl,f
  1324  0FDF  0DF5               	rlf	??___xxtofl+1,f
  1325  0FE0  0DF6               	rlf	??___xxtofl+2,f
  1326  0FE1  0DF7               	rlf	??___xxtofl+3,f
  1327  0FE2                     u278_20:
  1328  0FE2  3EFF               	addlw	-1
  1329  0FE3  1D03               	skipz
  1330  0FE4  2FDD               	goto	u278_25
  1331  0FE5  0874               	movf	??___xxtofl,w
  1332  0FE6  04FA               	iorwf	___xxtofl@arg,f
  1333  0FE7  0875               	movf	??___xxtofl+1,w
  1334  0FE8  04FB               	iorwf	___xxtofl@arg+1,f
  1335  0FE9  0876               	movf	??___xxtofl+2,w
  1336  0FEA  04FC               	iorwf	___xxtofl@arg+2,f
  1337  0FEB  0877               	movf	??___xxtofl+3,w
  1338  0FEC  04FD               	iorwf	___xxtofl@arg+3,f
  1339  0FED                     i1l1864:
  1340  0FED  0878               	movf	___xxtofl@sign,w
  1341  0FEE  1903               	btfsc	3,2
  1342  0FEF  2FF1               	goto	u279_21
  1343  0FF0  2FF2               	goto	u279_20
  1344  0FF1                     u279_21:
  1345  0FF1  2FF7               	goto	i1l1870
  1346  0FF2                     u279_20:
  1347  0FF2                     i1l1866:
  1348  0FF2  1FF3               	btfss	___xxtofl@val+3,7
  1349  0FF3  2FF5               	goto	u280_21
  1350  0FF4  2FF6               	goto	u280_20
  1351  0FF5                     u280_21:
  1352  0FF5  2FF7               	goto	i1l1870
  1353  0FF6                     u280_20:
  1354  0FF6                     i1l1868:
  1355  0FF6  17FD               	bsf	___xxtofl@arg+3,7
  1356  0FF7                     i1l1870:
  1357  0FF7  087D               	movf	___xxtofl@arg+3,w
  1358  0FF8  00F3               	movwf	?___xxtofl+3
  1359  0FF9  087C               	movf	___xxtofl@arg+2,w
  1360  0FFA  00F2               	movwf	?___xxtofl+2
  1361  0FFB  087B               	movf	___xxtofl@arg+1,w
  1362  0FFC  00F1               	movwf	?___xxtofl+1
  1363  0FFD  087A               	movf	___xxtofl@arg,w
  1364  0FFE  00F0               	movwf	?___xxtofl
  1365  0FFF                     i1l591:
  1366  0FFF  0008               	return
  1367  1000                     __end_of___xxtofl:
  1368                           
  1369                           	psect	text5
  1370  0DF8                     __ptext5:	
  1371 ;; *************** function ___fltol *****************
  1372 ;; Defined at:
  1373 ;;		line 43 in file "C:\Program Files\Microchip\xc8\v2.35\pic\sources\c90\common\fltol.c"
  1374 ;; Parameters:    Size  Location     Type
  1375 ;;  f1              4   72[BANK0 ] unsigned char 
  1376 ;; Auto vars:     Size  Location     Type
  1377 ;;  exp1            1   77[BANK0 ] unsigned char 
  1378 ;;  sign1           1   76[BANK0 ] unsigned char 
  1379 ;; Return value:  Size  Location     Type
  1380 ;;                  4   72[BANK0 ] long 
  1381 ;; Registers used:
  1382 ;;		wreg, status,2, status,0
  1383 ;; Tracked objects:
  1384 ;;		On entry : 0/0
  1385 ;;		On exit  : 0/0
  1386 ;;		Unchanged: 0/0
  1387 ;; Data sizes:     COMMON   BANK0   BANK1   BANK3   BANK2
  1388 ;;      Params:         0       4       0       0       0
  1389 ;;      Locals:         0       2       0       0       0
  1390 ;;      Temps:          0       0       5       0       0
  1391 ;;      Totals:         0       6       5       0       0
  1392 ;;Total ram usage:       11 bytes
  1393 ;; Hardware stack levels used: 1
  1394 ;; This function calls:
  1395 ;;		Nothing
  1396 ;; This function is called by:
  1397 ;;		_map
  1398 ;; This function uses a non-reentrant model
  1399 ;;
  1400                           
  1401  0DF8                     ___fltol:	
  1402                           ;psect for function ___fltol
  1403                           
  1404  0DF8                     i1l1318:	
  1405                           ;incstack = 0
  1406                           ; Regs used in ___fltol: [wreg+status,2+status,0]
  1407                           
  1408  0DF8  1003               	clrc
  1409  0DF9  1283               	bcf	3,5	;RP0=0, select bank0
  1410  0DFA  1303               	bcf	3,6	;RP1=0, select bank0
  1411  0DFB  0D6A               	rlf	___fltol@f1+2,w
  1412  0DFC  0D6B               	rlf	___fltol@f1+3,w
  1413  0DFD  1683               	bsf	3,5	;RP0=1, select bank1
  1414  0DFE  1303               	bcf	3,6	;RP1=0, select bank1
  1415  0DFF  00A0               	movwf	??___fltol^(0+128)
  1416  0E00  0820               	movf	??___fltol^(0+128),w
  1417  0E01  1283               	bcf	3,5	;RP0=0, select bank0
  1418  0E02  1303               	bcf	3,6	;RP1=0, select bank0
  1419  0E03  00ED               	movwf	___fltol@exp1
  1420  0E04  086D               	movf	___fltol@exp1,w
  1421  0E05  1D03               	btfss	3,2
  1422  0E06  2E08               	goto	u145_21
  1423  0E07  2E09               	goto	u145_20
  1424  0E08                     u145_21:
  1425  0E08  2E12               	goto	i1l1324
  1426  0E09                     u145_20:
  1427  0E09                     i1l1320:
  1428  0E09  3000               	movlw	0
  1429  0E0A  00EB               	movwf	?___fltol+3
  1430  0E0B  3000               	movlw	0
  1431  0E0C  00EA               	movwf	?___fltol+2
  1432  0E0D  3000               	movlw	0
  1433  0E0E  00E9               	movwf	?___fltol+1
  1434  0E0F  3000               	movlw	0
  1435  0E10  00E8               	movwf	?___fltol
  1436  0E11  2E93               	goto	i1l342
  1437  0E12                     i1l1324:
  1438  0E12  0868               	movf	___fltol@f1,w
  1439  0E13  1683               	bsf	3,5	;RP0=1, select bank1
  1440  0E14  1303               	bcf	3,6	;RP1=0, select bank1
  1441  0E15  00A0               	movwf	??___fltol^(0+128)
  1442  0E16  1283               	bcf	3,5	;RP0=0, select bank0
  1443  0E17  1303               	bcf	3,6	;RP1=0, select bank0
  1444  0E18  0869               	movf	___fltol@f1+1,w
  1445  0E19  1683               	bsf	3,5	;RP0=1, select bank1
  1446  0E1A  1303               	bcf	3,6	;RP1=0, select bank1
  1447  0E1B  00A1               	movwf	(??___fltol^(0+128)+1)
  1448  0E1C  1283               	bcf	3,5	;RP0=0, select bank0
  1449  0E1D  1303               	bcf	3,6	;RP1=0, select bank0
  1450  0E1E  086A               	movf	___fltol@f1+2,w
  1451  0E1F  1683               	bsf	3,5	;RP0=1, select bank1
  1452  0E20  1303               	bcf	3,6	;RP1=0, select bank1
  1453  0E21  00A2               	movwf	(??___fltol^(0+128)+2)
  1454  0E22  1283               	bcf	3,5	;RP0=0, select bank0
  1455  0E23  1303               	bcf	3,6	;RP1=0, select bank0
  1456  0E24  086B               	movf	___fltol@f1+3,w
  1457  0E25  1683               	bsf	3,5	;RP0=1, select bank1
  1458  0E26  1303               	bcf	3,6	;RP1=0, select bank1
  1459  0E27  00A3               	movwf	(??___fltol^(0+128)+3)
  1460  0E28  301F               	movlw	31
  1461  0E29                     u146_25:
  1462  0E29  1003               	clrc
  1463  0E2A  0CA3               	rrf	(??___fltol^(0+128)+3),f
  1464  0E2B  0CA2               	rrf	(??___fltol^(0+128)+2),f
  1465  0E2C  0CA1               	rrf	(??___fltol^(0+128)+1),f
  1466  0E2D  0CA0               	rrf	??___fltol^(0+128),f
  1467  0E2E                     u146_20:
  1468  0E2E  3EFF               	addlw	-1
  1469  0E2F  1D03               	skipz
  1470  0E30  2E29               	goto	u146_25
  1471  0E31  0820               	movf	??___fltol^(0+128),w
  1472  0E32  00A4               	movwf	(??___fltol+4)^(0+128)
  1473  0E33  0824               	movf	(??___fltol+4)^(0+128),w
  1474  0E34  1283               	bcf	3,5	;RP0=0, select bank0
  1475  0E35  1303               	bcf	3,6	;RP1=0, select bank0
  1476  0E36  00EC               	movwf	___fltol@sign1
  1477  0E37                     i1l1326:
  1478  0E37  17EA               	bsf	___fltol@f1+2,7
  1479  0E38                     i1l1328:
  1480  0E38  30FF               	movlw	255
  1481  0E39  05E8               	andwf	___fltol@f1,f
  1482  0E3A  30FF               	movlw	255
  1483  0E3B  05E9               	andwf	___fltol@f1+1,f
  1484  0E3C  30FF               	movlw	255
  1485  0E3D  05EA               	andwf	___fltol@f1+2,f
  1486  0E3E  3000               	movlw	0
  1487  0E3F  05EB               	andwf	___fltol@f1+3,f
  1488  0E40                     i1l1330:
  1489  0E40  3096               	movlw	150
  1490  0E41  02ED               	subwf	___fltol@exp1,f
  1491  0E42                     i1l1332:
  1492  0E42  1FED               	btfss	___fltol@exp1,7
  1493  0E43  2E45               	goto	u147_21
  1494  0E44  2E46               	goto	u147_20
  1495  0E45                     u147_21:
  1496  0E45  2E64               	goto	i1l1342
  1497  0E46                     u147_20:
  1498  0E46                     i1l1334:
  1499  0E46  086D               	movf	___fltol@exp1,w
  1500  0E47  3A80               	xorlw	128
  1501  0E48  3E97               	addlw	151
  1502  0E49  1803               	skipnc
  1503  0E4A  2E4C               	goto	u148_21
  1504  0E4B  2E4D               	goto	u148_20
  1505  0E4C                     u148_21:
  1506  0E4C  2E4E               	goto	i1l1340
  1507  0E4D                     u148_20:
  1508  0E4D  2E09               	goto	i1l1320
  1509  0E4E                     i1l1340:
  1510  0E4E  3001               	movlw	1
  1511  0E4F                     u149_25:
  1512  0E4F  1003               	clrc
  1513  0E50  0CEB               	rrf	___fltol@f1+3,f
  1514  0E51  0CEA               	rrf	___fltol@f1+2,f
  1515  0E52  0CE9               	rrf	___fltol@f1+1,f
  1516  0E53  0CE8               	rrf	___fltol@f1,f
  1517  0E54  3EFF               	addlw	-1
  1518  0E55  1D03               	skipz
  1519  0E56  2E4F               	goto	u149_25
  1520  0E57  3001               	movlw	1
  1521  0E58  1683               	bsf	3,5	;RP0=1, select bank1
  1522  0E59  1303               	bcf	3,6	;RP1=0, select bank1
  1523  0E5A  00A0               	movwf	??___fltol^(0+128)
  1524  0E5B  0820               	movf	??___fltol^(0+128),w
  1525  0E5C  1283               	bcf	3,5	;RP0=0, select bank0
  1526  0E5D  1303               	bcf	3,6	;RP1=0, select bank0
  1527  0E5E  07ED               	addwf	___fltol@exp1,f
  1528  0E5F  1D03               	btfss	3,2
  1529  0E60  2E62               	goto	u150_21
  1530  0E61  2E63               	goto	u150_20
  1531  0E62                     u150_21:
  1532  0E62  2E4E               	goto	i1l1340
  1533  0E63                     u150_20:
  1534  0E63  2E83               	goto	i1l1350
  1535  0E64                     i1l1342:
  1536  0E64  3020               	movlw	32
  1537  0E65  026D               	subwf	___fltol@exp1,w
  1538  0E66  1C03               	skipc
  1539  0E67  2E69               	goto	u151_21
  1540  0E68  2E6A               	goto	u151_20
  1541  0E69                     u151_21:
  1542  0E69  2E7E               	goto	i1l349
  1543  0E6A                     u151_20:
  1544  0E6A  2E09               	goto	i1l1320
  1545  0E6B                     i1l1348:
  1546  0E6B  3001               	movlw	1
  1547  0E6C  1683               	bsf	3,5	;RP0=1, select bank1
  1548  0E6D  1303               	bcf	3,6	;RP1=0, select bank1
  1549  0E6E  00A0               	movwf	??___fltol^(0+128)
  1550  0E6F                     u152_25:
  1551  0E6F  1003               	clrc
  1552  0E70  1283               	bcf	3,5	;RP0=0, select bank0
  1553  0E71  1303               	bcf	3,6	;RP1=0, select bank0
  1554  0E72  0DE8               	rlf	___fltol@f1,f
  1555  0E73  0DE9               	rlf	___fltol@f1+1,f
  1556  0E74  0DEA               	rlf	___fltol@f1+2,f
  1557  0E75  0DEB               	rlf	___fltol@f1+3,f
  1558  0E76  1683               	bsf	3,5	;RP0=1, select bank1
  1559  0E77  1303               	bcf	3,6	;RP1=0, select bank1
  1560  0E78  0BA0               	decfsz	??___fltol^(0+128),f
  1561  0E79  2E6F               	goto	u152_25
  1562  0E7A  3001               	movlw	1
  1563  0E7B  1283               	bcf	3,5	;RP0=0, select bank0
  1564  0E7C  1303               	bcf	3,6	;RP1=0, select bank0
  1565  0E7D  02ED               	subwf	___fltol@exp1,f
  1566  0E7E                     i1l349:
  1567  0E7E  086D               	movf	___fltol@exp1,w
  1568  0E7F  1D03               	btfss	3,2
  1569  0E80  2E82               	goto	u153_21
  1570  0E81  2E83               	goto	u153_20
  1571  0E82                     u153_21:
  1572  0E82  2E6B               	goto	i1l1348
  1573  0E83                     u153_20:
  1574  0E83                     i1l1350:
  1575  0E83  086C               	movf	___fltol@sign1,w
  1576  0E84  1903               	btfsc	3,2
  1577  0E85  2E87               	goto	u154_21
  1578  0E86  2E88               	goto	u154_20
  1579  0E87                     u154_21:
  1580  0E87  2E93               	goto	i1l352
  1581  0E88                     u154_20:
  1582  0E88                     i1l1352:
  1583  0E88  09E8               	comf	___fltol@f1,f
  1584  0E89  09E9               	comf	___fltol@f1+1,f
  1585  0E8A  09EA               	comf	___fltol@f1+2,f
  1586  0E8B  09EB               	comf	___fltol@f1+3,f
  1587  0E8C  0AE8               	incf	___fltol@f1,f
  1588  0E8D  1903               	skipnz
  1589  0E8E  0AE9               	incf	___fltol@f1+1,f
  1590  0E8F  1903               	skipnz
  1591  0E90  0AEA               	incf	___fltol@f1+2,f
  1592  0E91  1903               	skipnz
  1593  0E92  0AEB               	incf	___fltol@f1+3,f
  1594  0E93                     i1l352:
  1595  0E93                     i1l342:
  1596  0E93  0008               	return
  1597  0E94                     __end_of___fltol:
  1598                           
  1599                           	psect	text6
  1600  001C                     __ptext6:	
  1601 ;; *************** function ___flmul *****************
  1602 ;; Defined at:
  1603 ;;		line 8 in file "C:\Program Files\Microchip\xc8\v2.35\pic\sources\c90\common\sprcmul.c"
  1604 ;; Parameters:    Size  Location     Type
  1605 ;;  b               4   26[BANK0 ] long 
  1606 ;;  a               4   30[BANK0 ] long 
  1607 ;; Auto vars:     Size  Location     Type
  1608 ;;  prod            4   46[BANK0 ] struct .
  1609 ;;  grs             4   40[BANK0 ] unsigned long 
  1610 ;;  temp            2   50[BANK0 ] struct .
  1611 ;;  bexp            1   45[BANK0 ] unsigned char 
  1612 ;;  aexp            1   44[BANK0 ] unsigned char 
  1613 ;;  sign            1   39[BANK0 ] unsigned char 
  1614 ;; Return value:  Size  Location     Type
  1615 ;;                  4   26[BANK0 ] unsigned char 
  1616 ;; Registers used:
  1617 ;;		wreg, status,2, status,0, btemp+1, pclath, cstack
  1618 ;; Tracked objects:
  1619 ;;		On entry : 0/0
  1620 ;;		On exit  : 0/0
  1621 ;;		Unchanged: 0/0
  1622 ;; Data sizes:     COMMON   BANK0   BANK1   BANK3   BANK2
  1623 ;;      Params:         0       8       0       0       0
  1624 ;;      Locals:         0      13       0       0       0
  1625 ;;      Temps:          0       5       0       0       0
  1626 ;;      Totals:         0      26       0       0       0
  1627 ;;Total ram usage:       26 bytes
  1628 ;; Hardware stack levels used: 1
  1629 ;; Hardware stack levels required when called: 1
  1630 ;; This function calls:
  1631 ;;		__Umul8_16
  1632 ;; This function is called by:
  1633 ;;		_map
  1634 ;; This function uses a non-reentrant model
  1635 ;;
  1636                           
  1637  001C                     ___flmul:	
  1638                           ;psect for function ___flmul
  1639                           
  1640  001C                     i1l1690:	
  1641                           ;incstack = 0
  1642                           ; Regs used in ___flmul: [wreg+status,2+status,0+btemp+1+pclath+cstack]
  1643                           
  1644  001C  1283               	bcf	3,5	;RP0=0, select bank0
  1645  001D  1303               	bcf	3,6	;RP1=0, select bank0
  1646  001E  083D               	movf	___flmul@b+3,w
  1647  001F  3980               	andlw	128
  1648  0020  00C2               	movwf	??___flmul
  1649  0021  0842               	movf	??___flmul,w
  1650  0022  00C7               	movwf	___flmul@sign
  1651  0023                     i1l1692:
  1652  0023  083D               	movf	___flmul@b+3,w
  1653  0024  00C2               	movwf	??___flmul
  1654  0025  0742               	addwf	??___flmul,w
  1655  0026  00C3               	movwf	??___flmul+1
  1656  0027  0843               	movf	??___flmul+1,w
  1657  0028  00CD               	movwf	___flmul@bexp
  1658  0029                     i1l1694:
  1659  0029  1FBC               	btfss	___flmul@b+2,7
  1660  002A  282C               	goto	u230_21
  1661  002B  282D               	goto	u230_20
  1662  002C                     u230_21:
  1663  002C  282E               	goto	i1l1698
  1664  002D                     u230_20:
  1665  002D                     i1l1696:
  1666  002D  144D               	bsf	___flmul@bexp,0
  1667  002E                     i1l1698:
  1668  002E  084D               	movf	___flmul@bexp,w
  1669  002F  1903               	btfsc	3,2
  1670  0030  2832               	goto	u231_21
  1671  0031  2833               	goto	u231_20
  1672  0032                     u231_21:
  1673  0032  2842               	goto	i1l1706
  1674  0033                     u231_20:
  1675  0033                     i1l1700:
  1676  0033  0A4D               	incf	___flmul@bexp,w
  1677  0034  1D03               	btfss	3,2
  1678  0035  2837               	goto	u232_21
  1679  0036  2838               	goto	u232_20
  1680  0037                     u232_21:
  1681  0037  2840               	goto	i1l1704
  1682  0038                     u232_20:
  1683  0038                     i1l1702:
  1684  0038  3000               	movlw	0
  1685  0039  00BD               	movwf	___flmul@b+3
  1686  003A  3000               	movlw	0
  1687  003B  00BC               	movwf	___flmul@b+2
  1688  003C  3000               	movlw	0
  1689  003D  00BB               	movwf	___flmul@b+1
  1690  003E  3000               	movlw	0
  1691  003F  00BA               	movwf	___flmul@b
  1692  0040                     i1l1704:
  1693  0040  17BC               	bsf	___flmul@b+2,7
  1694  0041  284A               	goto	i1l1708
  1695  0042                     i1l1706:
  1696  0042  3000               	movlw	0
  1697  0043  00BD               	movwf	___flmul@b+3
  1698  0044  3000               	movlw	0
  1699  0045  00BC               	movwf	___flmul@b+2
  1700  0046  3000               	movlw	0
  1701  0047  00BB               	movwf	___flmul@b+1
  1702  0048  3000               	movlw	0
  1703  0049  00BA               	movwf	___flmul@b
  1704  004A                     i1l1708:
  1705  004A  0841               	movf	___flmul@a+3,w
  1706  004B  3980               	andlw	128
  1707  004C  00C2               	movwf	??___flmul
  1708  004D  0842               	movf	??___flmul,w
  1709  004E  06C7               	xorwf	___flmul@sign,f
  1710  004F                     i1l1710:
  1711  004F  0841               	movf	___flmul@a+3,w
  1712  0050  00C2               	movwf	??___flmul
  1713  0051  0742               	addwf	??___flmul,w
  1714  0052  00C3               	movwf	??___flmul+1
  1715  0053  0843               	movf	??___flmul+1,w
  1716  0054  00CC               	movwf	___flmul@aexp
  1717  0055                     i1l1712:
  1718  0055  1FC0               	btfss	___flmul@a+2,7
  1719  0056  2858               	goto	u233_21
  1720  0057  2859               	goto	u233_20
  1721  0058                     u233_21:
  1722  0058  285A               	goto	i1l1716
  1723  0059                     u233_20:
  1724  0059                     i1l1714:
  1725  0059  144C               	bsf	___flmul@aexp,0
  1726  005A                     i1l1716:
  1727  005A  084C               	movf	___flmul@aexp,w
  1728  005B  1903               	btfsc	3,2
  1729  005C  285E               	goto	u234_21
  1730  005D  285F               	goto	u234_20
  1731  005E                     u234_21:
  1732  005E  286E               	goto	i1l1724
  1733  005F                     u234_20:
  1734  005F                     i1l1718:
  1735  005F  0A4C               	incf	___flmul@aexp,w
  1736  0060  1D03               	btfss	3,2
  1737  0061  2863               	goto	u235_21
  1738  0062  2864               	goto	u235_20
  1739  0063                     u235_21:
  1740  0063  286C               	goto	i1l1722
  1741  0064                     u235_20:
  1742  0064                     i1l1720:
  1743  0064  3000               	movlw	0
  1744  0065  00C1               	movwf	___flmul@a+3
  1745  0066  3000               	movlw	0
  1746  0067  00C0               	movwf	___flmul@a+2
  1747  0068  3000               	movlw	0
  1748  0069  00BF               	movwf	___flmul@a+1
  1749  006A  3000               	movlw	0
  1750  006B  00BE               	movwf	___flmul@a
  1751  006C                     i1l1722:
  1752  006C  17C0               	bsf	___flmul@a+2,7
  1753  006D  2876               	goto	i1l1726
  1754  006E                     i1l1724:
  1755  006E  3000               	movlw	0
  1756  006F  00C1               	movwf	___flmul@a+3
  1757  0070  3000               	movlw	0
  1758  0071  00C0               	movwf	___flmul@a+2
  1759  0072  3000               	movlw	0
  1760  0073  00BF               	movwf	___flmul@a+1
  1761  0074  3000               	movlw	0
  1762  0075  00BE               	movwf	___flmul@a
  1763  0076                     i1l1726:
  1764  0076  084C               	movf	___flmul@aexp,w
  1765  0077  1903               	btfsc	3,2
  1766  0078  287A               	goto	u236_21
  1767  0079  287B               	goto	u236_20
  1768  007A                     u236_21:
  1769  007A  2880               	goto	i1l1730
  1770  007B                     u236_20:
  1771  007B                     i1l1728:
  1772  007B  084D               	movf	___flmul@bexp,w
  1773  007C  1D03               	btfss	3,2
  1774  007D  287F               	goto	u237_21
  1775  007E  2880               	goto	u237_20
  1776  007F                     u237_21:
  1777  007F  2889               	goto	i1l1734
  1778  0080                     u237_20:
  1779  0080                     i1l1730:
  1780  0080  3000               	movlw	0
  1781  0081  00BD               	movwf	?___flmul+3
  1782  0082  3000               	movlw	0
  1783  0083  00BC               	movwf	?___flmul+2
  1784  0084  3000               	movlw	0
  1785  0085  00BB               	movwf	?___flmul+1
  1786  0086  3000               	movlw	0
  1787  0087  00BA               	movwf	?___flmul
  1788  0088  2B7C               	goto	i1l545
  1789  0089                     i1l1734:
  1790  0089  083A               	movf	___flmul@b,w
  1791  008A  00C2               	movwf	??___flmul
  1792  008B  0842               	movf	??___flmul,w
  1793  008C  00F0               	movwf	__Umul8_16@multiplicand
  1794  008D  0840               	movf	___flmul@a+2,w
  1795  008E  120A  158A  253B  120A  118A  	fcall	__Umul8_16
  1796  0093  0871               	movf	?__Umul8_16+1,w
  1797  0094  1283               	bcf	3,5	;RP0=0, select bank0
  1798  0095  1303               	bcf	3,6	;RP1=0, select bank0
  1799  0096  00D3               	movwf	___flmul@temp+1
  1800  0097  0870               	movf	?__Umul8_16,w
  1801  0098  00D2               	movwf	___flmul@temp
  1802  0099                     i1l1736:
  1803  0099  0852               	movf	___flmul@temp,w
  1804  009A  00C2               	movwf	??___flmul
  1805  009B  01C3               	clrf	??___flmul+1
  1806  009C  01C4               	clrf	??___flmul+2
  1807  009D  01C5               	clrf	??___flmul+3
  1808  009E  0845               	movf	??___flmul+3,w
  1809  009F  00CB               	movwf	___flmul@grs+3
  1810  00A0  0844               	movf	??___flmul+2,w
  1811  00A1  00CA               	movwf	___flmul@grs+2
  1812  00A2  0843               	movf	??___flmul+1,w
  1813  00A3  00C9               	movwf	___flmul@grs+1
  1814  00A4  0842               	movf	??___flmul,w
  1815  00A5  00C8               	movwf	___flmul@grs
  1816  00A6                     i1l1738:
  1817  00A6  0853               	movf	___flmul@temp+1,w
  1818  00A7  00C2               	movwf	??___flmul
  1819  00A8  01C3               	clrf	??___flmul+1
  1820  00A9  01C4               	clrf	??___flmul+2
  1821  00AA  01C5               	clrf	??___flmul+3
  1822  00AB  0845               	movf	??___flmul+3,w
  1823  00AC  00D1               	movwf	___flmul@prod+3
  1824  00AD  0844               	movf	??___flmul+2,w
  1825  00AE  00D0               	movwf	___flmul@prod+2
  1826  00AF  0843               	movf	??___flmul+1,w
  1827  00B0  00CF               	movwf	___flmul@prod+1
  1828  00B1  0842               	movf	??___flmul,w
  1829  00B2  00CE               	movwf	___flmul@prod
  1830  00B3  083B               	movf	___flmul@b+1,w
  1831  00B4  00C2               	movwf	??___flmul
  1832  00B5  0842               	movf	??___flmul,w
  1833  00B6  00F0               	movwf	__Umul8_16@multiplicand
  1834  00B7  083F               	movf	___flmul@a+1,w
  1835  00B8  120A  158A  253B  120A  118A  	fcall	__Umul8_16
  1836  00BD  0871               	movf	?__Umul8_16+1,w
  1837  00BE  1283               	bcf	3,5	;RP0=0, select bank0
  1838  00BF  1303               	bcf	3,6	;RP1=0, select bank0
  1839  00C0  00D3               	movwf	___flmul@temp+1
  1840  00C1  0870               	movf	?__Umul8_16,w
  1841  00C2  00D2               	movwf	___flmul@temp
  1842  00C3                     i1l1740:
  1843  00C3  0852               	movf	___flmul@temp,w
  1844  00C4  00C2               	movwf	??___flmul
  1845  00C5  01C3               	clrf	??___flmul+1
  1846  00C6  01C4               	clrf	??___flmul+2
  1847  00C7  01C5               	clrf	??___flmul+3
  1848  00C8  0842               	movf	??___flmul,w
  1849  00C9  07C8               	addwf	___flmul@grs,f
  1850  00CA  0843               	movf	??___flmul+1,w
  1851  00CB  1103               	clrz
  1852  00CC  1803               	skipnc
  1853  00CD  3E01               	addlw	1
  1854  00CE  1903               	skipnz
  1855  00CF  28D1               	goto	u238_21
  1856  00D0  07C9               	addwf	___flmul@grs+1,f
  1857  00D1                     u238_21:
  1858  00D1  0844               	movf	??___flmul+2,w
  1859  00D2  1103               	clrz
  1860  00D3  1803               	skipnc
  1861  00D4  3E01               	addlw	1
  1862  00D5  1903               	skipnz
  1863  00D6  28D8               	goto	u238_22
  1864  00D7  07CA               	addwf	___flmul@grs+2,f
  1865  00D8                     u238_22:
  1866  00D8  0845               	movf	??___flmul+3,w
  1867  00D9  1103               	clrz
  1868  00DA  1803               	skipnc
  1869  00DB  3E01               	addlw	1
  1870  00DC  1903               	skipnz
  1871  00DD  28DF               	goto	u238_23
  1872  00DE  07CB               	addwf	___flmul@grs+3,f
  1873  00DF                     u238_23:
  1874  00DF                     i1l1742:
  1875  00DF  0853               	movf	___flmul@temp+1,w
  1876  00E0  00C2               	movwf	??___flmul
  1877  00E1  01C3               	clrf	??___flmul+1
  1878  00E2  01C4               	clrf	??___flmul+2
  1879  00E3  01C5               	clrf	??___flmul+3
  1880  00E4  0842               	movf	??___flmul,w
  1881  00E5  07CE               	addwf	___flmul@prod,f
  1882  00E6  0843               	movf	??___flmul+1,w
  1883  00E7  1103               	clrz
  1884  00E8  1803               	skipnc
  1885  00E9  3E01               	addlw	1
  1886  00EA  1903               	skipnz
  1887  00EB  28ED               	goto	u239_21
  1888  00EC  07CF               	addwf	___flmul@prod+1,f
  1889  00ED                     u239_21:
  1890  00ED  0844               	movf	??___flmul+2,w
  1891  00EE  1103               	clrz
  1892  00EF  1803               	skipnc
  1893  00F0  3E01               	addlw	1
  1894  00F1  1903               	skipnz
  1895  00F2  28F4               	goto	u239_22
  1896  00F3  07D0               	addwf	___flmul@prod+2,f
  1897  00F4                     u239_22:
  1898  00F4  0845               	movf	??___flmul+3,w
  1899  00F5  1103               	clrz
  1900  00F6  1803               	skipnc
  1901  00F7  3E01               	addlw	1
  1902  00F8  1903               	skipnz
  1903  00F9  28FB               	goto	u239_23
  1904  00FA  07D1               	addwf	___flmul@prod+3,f
  1905  00FB                     u239_23:
  1906  00FB  083C               	movf	___flmul@b+2,w
  1907  00FC  00C2               	movwf	??___flmul
  1908  00FD  0842               	movf	??___flmul,w
  1909  00FE  00F0               	movwf	__Umul8_16@multiplicand
  1910  00FF  083E               	movf	___flmul@a,w
  1911  0100  120A  158A  253B  120A  118A  	fcall	__Umul8_16
  1912  0105  0871               	movf	?__Umul8_16+1,w
  1913  0106  1283               	bcf	3,5	;RP0=0, select bank0
  1914  0107  1303               	bcf	3,6	;RP1=0, select bank0
  1915  0108  00D3               	movwf	___flmul@temp+1
  1916  0109  0870               	movf	?__Umul8_16,w
  1917  010A  00D2               	movwf	___flmul@temp
  1918  010B                     i1l1744:
  1919  010B  0852               	movf	___flmul@temp,w
  1920  010C  00C2               	movwf	??___flmul
  1921  010D  01C3               	clrf	??___flmul+1
  1922  010E  01C4               	clrf	??___flmul+2
  1923  010F  01C5               	clrf	??___flmul+3
  1924  0110  0842               	movf	??___flmul,w
  1925  0111  07C8               	addwf	___flmul@grs,f
  1926  0112  0843               	movf	??___flmul+1,w
  1927  0113  1103               	clrz
  1928  0114  1803               	skipnc
  1929  0115  3E01               	addlw	1
  1930  0116  1903               	skipnz
  1931  0117  2919               	goto	u240_21
  1932  0118  07C9               	addwf	___flmul@grs+1,f
  1933  0119                     u240_21:
  1934  0119  0844               	movf	??___flmul+2,w
  1935  011A  1103               	clrz
  1936  011B  1803               	skipnc
  1937  011C  3E01               	addlw	1
  1938  011D  1903               	skipnz
  1939  011E  2920               	goto	u240_22
  1940  011F  07CA               	addwf	___flmul@grs+2,f
  1941  0120                     u240_22:
  1942  0120  0845               	movf	??___flmul+3,w
  1943  0121  1103               	clrz
  1944  0122  1803               	skipnc
  1945  0123  3E01               	addlw	1
  1946  0124  1903               	skipnz
  1947  0125  2927               	goto	u240_23
  1948  0126  07CB               	addwf	___flmul@grs+3,f
  1949  0127                     u240_23:
  1950  0127                     i1l1746:
  1951  0127  0853               	movf	___flmul@temp+1,w
  1952  0128  00C2               	movwf	??___flmul
  1953  0129  01C3               	clrf	??___flmul+1
  1954  012A  01C4               	clrf	??___flmul+2
  1955  012B  01C5               	clrf	??___flmul+3
  1956  012C  0842               	movf	??___flmul,w
  1957  012D  07CE               	addwf	___flmul@prod,f
  1958  012E  0843               	movf	??___flmul+1,w
  1959  012F  1103               	clrz
  1960  0130  1803               	skipnc
  1961  0131  3E01               	addlw	1
  1962  0132  1903               	skipnz
  1963  0133  2935               	goto	u241_21
  1964  0134  07CF               	addwf	___flmul@prod+1,f
  1965  0135                     u241_21:
  1966  0135  0844               	movf	??___flmul+2,w
  1967  0136  1103               	clrz
  1968  0137  1803               	skipnc
  1969  0138  3E01               	addlw	1
  1970  0139  1903               	skipnz
  1971  013A  293C               	goto	u241_22
  1972  013B  07D0               	addwf	___flmul@prod+2,f
  1973  013C                     u241_22:
  1974  013C  0845               	movf	??___flmul+3,w
  1975  013D  1103               	clrz
  1976  013E  1803               	skipnc
  1977  013F  3E01               	addlw	1
  1978  0140  1903               	skipnz
  1979  0141  2943               	goto	u241_23
  1980  0142  07D1               	addwf	___flmul@prod+3,f
  1981  0143                     u241_23:
  1982  0143                     i1l1748:
  1983  0143  3008               	movlw	8
  1984  0144  00C2               	movwf	??___flmul
  1985  0145                     u242_25:
  1986  0145  1003               	clrc
  1987  0146  0DC8               	rlf	___flmul@grs,f
  1988  0147  0DC9               	rlf	___flmul@grs+1,f
  1989  0148  0DCA               	rlf	___flmul@grs+2,f
  1990  0149  0DCB               	rlf	___flmul@grs+3,f
  1991  014A  0BC2               	decfsz	??___flmul,f
  1992  014B  2945               	goto	u242_25
  1993  014C                     i1l1750:
  1994  014C  083B               	movf	___flmul@b+1,w
  1995  014D  00C2               	movwf	??___flmul
  1996  014E  0842               	movf	??___flmul,w
  1997  014F  00F0               	movwf	__Umul8_16@multiplicand
  1998  0150  083E               	movf	___flmul@a,w
  1999  0151  120A  158A  253B  120A  118A  	fcall	__Umul8_16
  2000  0156  0871               	movf	?__Umul8_16+1,w
  2001  0157  1283               	bcf	3,5	;RP0=0, select bank0
  2002  0158  1303               	bcf	3,6	;RP1=0, select bank0
  2003  0159  00D3               	movwf	___flmul@temp+1
  2004  015A  0870               	movf	?__Umul8_16,w
  2005  015B  00D2               	movwf	___flmul@temp
  2006  015C                     i1l1752:
  2007  015C  0852               	movf	___flmul@temp,w
  2008  015D  00C2               	movwf	??___flmul
  2009  015E  0853               	movf	___flmul@temp+1,w
  2010  015F  00C3               	movwf	??___flmul+1
  2011  0160  01C4               	clrf	??___flmul+2
  2012  0161  01C5               	clrf	??___flmul+3
  2013  0162  0842               	movf	??___flmul,w
  2014  0163  07C8               	addwf	___flmul@grs,f
  2015  0164  0843               	movf	??___flmul+1,w
  2016  0165  1103               	clrz
  2017  0166  1803               	skipnc
  2018  0167  3E01               	addlw	1
  2019  0168  1903               	skipnz
  2020  0169  296B               	goto	u243_21
  2021  016A  07C9               	addwf	___flmul@grs+1,f
  2022  016B                     u243_21:
  2023  016B  0844               	movf	??___flmul+2,w
  2024  016C  1103               	clrz
  2025  016D  1803               	skipnc
  2026  016E  3E01               	addlw	1
  2027  016F  1903               	skipnz
  2028  0170  2972               	goto	u243_22
  2029  0171  07CA               	addwf	___flmul@grs+2,f
  2030  0172                     u243_22:
  2031  0172  0845               	movf	??___flmul+3,w
  2032  0173  1103               	clrz
  2033  0174  1803               	skipnc
  2034  0175  3E01               	addlw	1
  2035  0176  1903               	skipnz
  2036  0177  2979               	goto	u243_23
  2037  0178  07CB               	addwf	___flmul@grs+3,f
  2038  0179                     u243_23:
  2039  0179                     i1l1754:
  2040  0179  083A               	movf	___flmul@b,w
  2041  017A  00C2               	movwf	??___flmul
  2042  017B  0842               	movf	??___flmul,w
  2043  017C  00F0               	movwf	__Umul8_16@multiplicand
  2044  017D  083F               	movf	___flmul@a+1,w
  2045  017E  120A  158A  253B  120A  118A  	fcall	__Umul8_16
  2046  0183  0871               	movf	?__Umul8_16+1,w
  2047  0184  1283               	bcf	3,5	;RP0=0, select bank0
  2048  0185  1303               	bcf	3,6	;RP1=0, select bank0
  2049  0186  00D3               	movwf	___flmul@temp+1
  2050  0187  0870               	movf	?__Umul8_16,w
  2051  0188  00D2               	movwf	___flmul@temp
  2052  0189                     i1l1756:
  2053  0189  0852               	movf	___flmul@temp,w
  2054  018A  00C2               	movwf	??___flmul
  2055  018B  0853               	movf	___flmul@temp+1,w
  2056  018C  00C3               	movwf	??___flmul+1
  2057  018D  01C4               	clrf	??___flmul+2
  2058  018E  01C5               	clrf	??___flmul+3
  2059  018F  0842               	movf	??___flmul,w
  2060  0190  07C8               	addwf	___flmul@grs,f
  2061  0191  0843               	movf	??___flmul+1,w
  2062  0192  1103               	clrz
  2063  0193  1803               	skipnc
  2064  0194  3E01               	addlw	1
  2065  0195  1903               	skipnz
  2066  0196  2998               	goto	u244_21
  2067  0197  07C9               	addwf	___flmul@grs+1,f
  2068  0198                     u244_21:
  2069  0198  0844               	movf	??___flmul+2,w
  2070  0199  1103               	clrz
  2071  019A  1803               	skipnc
  2072  019B  3E01               	addlw	1
  2073  019C  1903               	skipnz
  2074  019D  299F               	goto	u244_22
  2075  019E  07CA               	addwf	___flmul@grs+2,f
  2076  019F                     u244_22:
  2077  019F  0845               	movf	??___flmul+3,w
  2078  01A0  1103               	clrz
  2079  01A1  1803               	skipnc
  2080  01A2  3E01               	addlw	1
  2081  01A3  1903               	skipnz
  2082  01A4  29A6               	goto	u244_23
  2083  01A5  07CB               	addwf	___flmul@grs+3,f
  2084  01A6                     u244_23:
  2085  01A6                     i1l1758:
  2086  01A6  3008               	movlw	8
  2087  01A7  00C2               	movwf	??___flmul
  2088  01A8                     u245_25:
  2089  01A8  1003               	clrc
  2090  01A9  0DC8               	rlf	___flmul@grs,f
  2091  01AA  0DC9               	rlf	___flmul@grs+1,f
  2092  01AB  0DCA               	rlf	___flmul@grs+2,f
  2093  01AC  0DCB               	rlf	___flmul@grs+3,f
  2094  01AD  0BC2               	decfsz	??___flmul,f
  2095  01AE  29A8               	goto	u245_25
  2096  01AF  083A               	movf	___flmul@b,w
  2097  01B0  00C2               	movwf	??___flmul
  2098  01B1  0842               	movf	??___flmul,w
  2099  01B2  00F0               	movwf	__Umul8_16@multiplicand
  2100  01B3  083E               	movf	___flmul@a,w
  2101  01B4  120A  158A  253B  120A  118A  	fcall	__Umul8_16
  2102  01B9  0871               	movf	?__Umul8_16+1,w
  2103  01BA  1283               	bcf	3,5	;RP0=0, select bank0
  2104  01BB  1303               	bcf	3,6	;RP1=0, select bank0
  2105  01BC  00D3               	movwf	___flmul@temp+1
  2106  01BD  0870               	movf	?__Umul8_16,w
  2107  01BE  00D2               	movwf	___flmul@temp
  2108  01BF                     i1l1760:
  2109  01BF  0852               	movf	___flmul@temp,w
  2110  01C0  00C2               	movwf	??___flmul
  2111  01C1  0853               	movf	___flmul@temp+1,w
  2112  01C2  00C3               	movwf	??___flmul+1
  2113  01C3  01C4               	clrf	??___flmul+2
  2114  01C4  01C5               	clrf	??___flmul+3
  2115  01C5  0842               	movf	??___flmul,w
  2116  01C6  07C8               	addwf	___flmul@grs,f
  2117  01C7  0843               	movf	??___flmul+1,w
  2118  01C8  1103               	clrz
  2119  01C9  1803               	skipnc
  2120  01CA  3E01               	addlw	1
  2121  01CB  1903               	skipnz
  2122  01CC  29CE               	goto	u246_21
  2123  01CD  07C9               	addwf	___flmul@grs+1,f
  2124  01CE                     u246_21:
  2125  01CE  0844               	movf	??___flmul+2,w
  2126  01CF  1103               	clrz
  2127  01D0  1803               	skipnc
  2128  01D1  3E01               	addlw	1
  2129  01D2  1903               	skipnz
  2130  01D3  29D5               	goto	u246_22
  2131  01D4  07CA               	addwf	___flmul@grs+2,f
  2132  01D5                     u246_22:
  2133  01D5  0845               	movf	??___flmul+3,w
  2134  01D6  1103               	clrz
  2135  01D7  1803               	skipnc
  2136  01D8  3E01               	addlw	1
  2137  01D9  1903               	skipnz
  2138  01DA  29DC               	goto	u246_23
  2139  01DB  07CB               	addwf	___flmul@grs+3,f
  2140  01DC                     u246_23:
  2141  01DC                     i1l1762:
  2142  01DC  083B               	movf	___flmul@b+1,w
  2143  01DD  00C2               	movwf	??___flmul
  2144  01DE  0842               	movf	??___flmul,w
  2145  01DF  00F0               	movwf	__Umul8_16@multiplicand
  2146  01E0  0840               	movf	___flmul@a+2,w
  2147  01E1  120A  158A  253B  120A  118A  	fcall	__Umul8_16
  2148  01E6  0871               	movf	?__Umul8_16+1,w
  2149  01E7  1283               	bcf	3,5	;RP0=0, select bank0
  2150  01E8  1303               	bcf	3,6	;RP1=0, select bank0
  2151  01E9  00D3               	movwf	___flmul@temp+1
  2152  01EA  0870               	movf	?__Umul8_16,w
  2153  01EB  00D2               	movwf	___flmul@temp
  2154  01EC  0852               	movf	___flmul@temp,w
  2155  01ED  00C2               	movwf	??___flmul
  2156  01EE  0853               	movf	___flmul@temp+1,w
  2157  01EF  00C3               	movwf	??___flmul+1
  2158  01F0  01C4               	clrf	??___flmul+2
  2159  01F1  01C5               	clrf	??___flmul+3
  2160  01F2  0842               	movf	??___flmul,w
  2161  01F3  07CE               	addwf	___flmul@prod,f
  2162  01F4  0843               	movf	??___flmul+1,w
  2163  01F5  1103               	clrz
  2164  01F6  1803               	skipnc
  2165  01F7  3E01               	addlw	1
  2166  01F8  1903               	skipnz
  2167  01F9  29FB               	goto	u247_21
  2168  01FA  07CF               	addwf	___flmul@prod+1,f
  2169  01FB                     u247_21:
  2170  01FB  0844               	movf	??___flmul+2,w
  2171  01FC  1103               	clrz
  2172  01FD  1803               	skipnc
  2173  01FE  3E01               	addlw	1
  2174  01FF  1903               	skipnz
  2175  0200  2A02               	goto	u247_22
  2176  0201  07D0               	addwf	___flmul@prod+2,f
  2177  0202                     u247_22:
  2178  0202  0845               	movf	??___flmul+3,w
  2179  0203  1103               	clrz
  2180  0204  1803               	skipnc
  2181  0205  3E01               	addlw	1
  2182  0206  1903               	skipnz
  2183  0207  2A09               	goto	u247_23
  2184  0208  07D1               	addwf	___flmul@prod+3,f
  2185  0209                     u247_23:
  2186  0209                     i1l1764:
  2187  0209  083C               	movf	___flmul@b+2,w
  2188  020A  00C2               	movwf	??___flmul
  2189  020B  0842               	movf	??___flmul,w
  2190  020C  00F0               	movwf	__Umul8_16@multiplicand
  2191  020D  083F               	movf	___flmul@a+1,w
  2192  020E  120A  158A  253B  120A  118A  	fcall	__Umul8_16
  2193  0213  0871               	movf	?__Umul8_16+1,w
  2194  0214  1283               	bcf	3,5	;RP0=0, select bank0
  2195  0215  1303               	bcf	3,6	;RP1=0, select bank0
  2196  0216  00D3               	movwf	___flmul@temp+1
  2197  0217  0870               	movf	?__Umul8_16,w
  2198  0218  00D2               	movwf	___flmul@temp
  2199  0219                     i1l1766:
  2200  0219  0852               	movf	___flmul@temp,w
  2201  021A  00C2               	movwf	??___flmul
  2202  021B  0853               	movf	___flmul@temp+1,w
  2203  021C  00C3               	movwf	??___flmul+1
  2204  021D  01C4               	clrf	??___flmul+2
  2205  021E  01C5               	clrf	??___flmul+3
  2206  021F  0842               	movf	??___flmul,w
  2207  0220  07CE               	addwf	___flmul@prod,f
  2208  0221  0843               	movf	??___flmul+1,w
  2209  0222  1103               	clrz
  2210  0223  1803               	skipnc
  2211  0224  3E01               	addlw	1
  2212  0225  1903               	skipnz
  2213  0226  2A28               	goto	u248_21
  2214  0227  07CF               	addwf	___flmul@prod+1,f
  2215  0228                     u248_21:
  2216  0228  0844               	movf	??___flmul+2,w
  2217  0229  1103               	clrz
  2218  022A  1803               	skipnc
  2219  022B  3E01               	addlw	1
  2220  022C  1903               	skipnz
  2221  022D  2A2F               	goto	u248_22
  2222  022E  07D0               	addwf	___flmul@prod+2,f
  2223  022F                     u248_22:
  2224  022F  0845               	movf	??___flmul+3,w
  2225  0230  1103               	clrz
  2226  0231  1803               	skipnc
  2227  0232  3E01               	addlw	1
  2228  0233  1903               	skipnz
  2229  0234  2A36               	goto	u248_23
  2230  0235  07D1               	addwf	___flmul@prod+3,f
  2231  0236                     u248_23:
  2232  0236  083C               	movf	___flmul@b+2,w
  2233  0237  00C2               	movwf	??___flmul
  2234  0238  0842               	movf	??___flmul,w
  2235  0239  00F0               	movwf	__Umul8_16@multiplicand
  2236  023A  0840               	movf	___flmul@a+2,w
  2237  023B  120A  158A  253B  120A  118A  	fcall	__Umul8_16
  2238  0240  0871               	movf	?__Umul8_16+1,w
  2239  0241  1283               	bcf	3,5	;RP0=0, select bank0
  2240  0242  1303               	bcf	3,6	;RP1=0, select bank0
  2241  0243  00D3               	movwf	___flmul@temp+1
  2242  0244  0870               	movf	?__Umul8_16,w
  2243  0245  00D2               	movwf	___flmul@temp
  2244  0246                     i1l1768:
  2245  0246  0852               	movf	___flmul@temp,w
  2246  0247  00C2               	movwf	??___flmul
  2247  0248  0853               	movf	___flmul@temp+1,w
  2248  0249  00C3               	movwf	??___flmul+1
  2249  024A  01C4               	clrf	??___flmul+2
  2250  024B  01C5               	clrf	??___flmul+3
  2251  024C  3008               	movlw	8
  2252  024D                     u249_25:
  2253  024D  1003               	clrc
  2254  024E  0DC2               	rlf	??___flmul,f
  2255  024F  0DC3               	rlf	??___flmul+1,f
  2256  0250  0DC4               	rlf	??___flmul+2,f
  2257  0251  0DC5               	rlf	??___flmul+3,f
  2258  0252                     u249_20:
  2259  0252  3EFF               	addlw	-1
  2260  0253  1D03               	skipz
  2261  0254  2A4D               	goto	u249_25
  2262  0255  0842               	movf	??___flmul,w
  2263  0256  07CE               	addwf	___flmul@prod,f
  2264  0257  0843               	movf	??___flmul+1,w
  2265  0258  1103               	clrz
  2266  0259  1803               	skipnc
  2267  025A  3E01               	addlw	1
  2268  025B  1903               	skipnz
  2269  025C  2A5E               	goto	u250_21
  2270  025D  07CF               	addwf	___flmul@prod+1,f
  2271  025E                     u250_21:
  2272  025E  0844               	movf	??___flmul+2,w
  2273  025F  1103               	clrz
  2274  0260  1803               	skipnc
  2275  0261  3E01               	addlw	1
  2276  0262  1903               	skipnz
  2277  0263  2A65               	goto	u250_22
  2278  0264  07D0               	addwf	___flmul@prod+2,f
  2279  0265                     u250_22:
  2280  0265  0845               	movf	??___flmul+3,w
  2281  0266  1103               	clrz
  2282  0267  1803               	skipnc
  2283  0268  3E01               	addlw	1
  2284  0269  1903               	skipnz
  2285  026A  2A6C               	goto	u250_23
  2286  026B  07D1               	addwf	___flmul@prod+3,f
  2287  026C                     u250_23:
  2288  026C                     i1l1770:
  2289  026C  0848               	movf	___flmul@grs,w
  2290  026D  00C2               	movwf	??___flmul
  2291  026E  0849               	movf	___flmul@grs+1,w
  2292  026F  00C3               	movwf	??___flmul+1
  2293  0270  084A               	movf	___flmul@grs+2,w
  2294  0271  00C4               	movwf	??___flmul+2
  2295  0272  084B               	movf	___flmul@grs+3,w
  2296  0273  00C5               	movwf	??___flmul+3
  2297  0274  3018               	movlw	24
  2298  0275                     u251_25:
  2299  0275  1003               	clrc
  2300  0276  0CC5               	rrf	??___flmul+3,f
  2301  0277  0CC4               	rrf	??___flmul+2,f
  2302  0278  0CC3               	rrf	??___flmul+1,f
  2303  0279  0CC2               	rrf	??___flmul,f
  2304  027A                     u251_20:
  2305  027A  3EFF               	addlw	-1
  2306  027B  1D03               	skipz
  2307  027C  2A75               	goto	u251_25
  2308  027D  0842               	movf	??___flmul,w
  2309  027E  07CE               	addwf	___flmul@prod,f
  2310  027F  0843               	movf	??___flmul+1,w
  2311  0280  1103               	clrz
  2312  0281  1803               	skipnc
  2313  0282  3E01               	addlw	1
  2314  0283  1903               	skipnz
  2315  0284  2A86               	goto	u252_21
  2316  0285  07CF               	addwf	___flmul@prod+1,f
  2317  0286                     u252_21:
  2318  0286  0844               	movf	??___flmul+2,w
  2319  0287  1103               	clrz
  2320  0288  1803               	skipnc
  2321  0289  3E01               	addlw	1
  2322  028A  1903               	skipnz
  2323  028B  2A8D               	goto	u252_22
  2324  028C  07D0               	addwf	___flmul@prod+2,f
  2325  028D                     u252_22:
  2326  028D  0845               	movf	??___flmul+3,w
  2327  028E  1103               	clrz
  2328  028F  1803               	skipnc
  2329  0290  3E01               	addlw	1
  2330  0291  1903               	skipnz
  2331  0292  2A94               	goto	u252_23
  2332  0293  07D1               	addwf	___flmul@prod+3,f
  2333  0294                     u252_23:
  2334  0294                     i1l1772:
  2335  0294  3008               	movlw	8
  2336  0295  00C2               	movwf	??___flmul
  2337  0296                     u253_25:
  2338  0296  1003               	clrc
  2339  0297  0DC8               	rlf	___flmul@grs,f
  2340  0298  0DC9               	rlf	___flmul@grs+1,f
  2341  0299  0DCA               	rlf	___flmul@grs+2,f
  2342  029A  0DCB               	rlf	___flmul@grs+3,f
  2343  029B  0BC2               	decfsz	??___flmul,f
  2344  029C  2A96               	goto	u253_25
  2345  029D                     i1l1774:
  2346  029D  084D               	movf	___flmul@bexp,w
  2347  029E  074C               	addwf	___flmul@aexp,w
  2348  029F  00C2               	movwf	??___flmul
  2349  02A0  01C3               	clrf	??___flmul+1
  2350  02A1  0DC3               	rlf	??___flmul+1,f
  2351  02A2  0842               	movf	??___flmul,w
  2352  02A3  3E82               	addlw	130
  2353  02A4  00D2               	movwf	___flmul@temp
  2354  02A5  0843               	movf	??___flmul+1,w
  2355  02A6  1803               	skipnc
  2356  02A7  3E01               	addlw	1
  2357  02A8  3EFF               	addlw	255
  2358  02A9  00D3               	movwf	___flmul@temp+1
  2359  02AA  2AC8               	goto	i1l1786
  2360  02AB                     i1l1776:
  2361  02AB  3001               	movlw	1
  2362  02AC  00C2               	movwf	??___flmul
  2363  02AD                     u254_25:
  2364  02AD  1003               	clrc
  2365  02AE  0DCE               	rlf	___flmul@prod,f
  2366  02AF  0DCF               	rlf	___flmul@prod+1,f
  2367  02B0  0DD0               	rlf	___flmul@prod+2,f
  2368  02B1  0DD1               	rlf	___flmul@prod+3,f
  2369  02B2  0BC2               	decfsz	??___flmul,f
  2370  02B3  2AAD               	goto	u254_25
  2371  02B4                     i1l1778:
  2372  02B4  1FCB               	btfss	___flmul@grs+3,7
  2373  02B5  2AB7               	goto	u255_21
  2374  02B6  2AB8               	goto	u255_20
  2375  02B7                     u255_21:
  2376  02B7  2AB9               	goto	i1l1782
  2377  02B8                     u255_20:
  2378  02B8                     i1l1780:
  2379  02B8  144E               	bsf	___flmul@prod,0
  2380  02B9                     i1l1782:
  2381  02B9  3001               	movlw	1
  2382  02BA  00C2               	movwf	??___flmul
  2383  02BB                     u256_25:
  2384  02BB  1003               	clrc
  2385  02BC  0DC8               	rlf	___flmul@grs,f
  2386  02BD  0DC9               	rlf	___flmul@grs+1,f
  2387  02BE  0DCA               	rlf	___flmul@grs+2,f
  2388  02BF  0DCB               	rlf	___flmul@grs+3,f
  2389  02C0  0BC2               	decfsz	??___flmul,f
  2390  02C1  2ABB               	goto	u256_25
  2391  02C2                     i1l1784:
  2392  02C2  30FF               	movlw	255
  2393  02C3  07D2               	addwf	___flmul@temp,f
  2394  02C4  1803               	skipnc
  2395  02C5  0AD3               	incf	___flmul@temp+1,f
  2396  02C6  30FF               	movlw	255
  2397  02C7  07D3               	addwf	___flmul@temp+1,f
  2398  02C8                     i1l1786:
  2399  02C8  1FD0               	btfss	___flmul@prod+2,7
  2400  02C9  2ACB               	goto	u257_21
  2401  02CA  2ACC               	goto	u257_20
  2402  02CB                     u257_21:
  2403  02CB  2AAB               	goto	i1l1776
  2404  02CC                     u257_20:
  2405  02CC                     i1l1788:
  2406  02CC  01CC               	clrf	___flmul@aexp
  2407  02CD                     i1l1790:
  2408  02CD  1FCB               	btfss	___flmul@grs+3,7
  2409  02CE  2AD0               	goto	u258_21
  2410  02CF  2AD1               	goto	u258_20
  2411  02D0                     u258_21:
  2412  02D0  2AED               	goto	i1l1798
  2413  02D1                     u258_20:
  2414  02D1                     i1l1792:
  2415  02D1  30FF               	movlw	255
  2416  02D2  0548               	andwf	___flmul@grs,w
  2417  02D3  00C2               	movwf	??___flmul
  2418  02D4  30FF               	movlw	255
  2419  02D5  0549               	andwf	___flmul@grs+1,w
  2420  02D6  00C3               	movwf	??___flmul+1
  2421  02D7  30FF               	movlw	255
  2422  02D8  054A               	andwf	___flmul@grs+2,w
  2423  02D9  00C4               	movwf	??___flmul+2
  2424  02DA  307F               	movlw	127
  2425  02DB  054B               	andwf	___flmul@grs+3,w
  2426  02DC  00C5               	movwf	??___flmul+3
  2427  02DD  0845               	movf	??___flmul+3,w
  2428  02DE  0444               	iorwf	??___flmul+2,w
  2429  02DF  0443               	iorwf	??___flmul+1,w
  2430  02E0  0442               	iorwf	??___flmul,w
  2431  02E1  1903               	skipnz
  2432  02E2  2AE4               	goto	u259_21
  2433  02E3  2AE5               	goto	u259_20
  2434  02E4                     u259_21:
  2435  02E4  2AE8               	goto	i1l551
  2436  02E5                     u259_20:
  2437  02E5                     i1l1794:
  2438  02E5  01CC               	clrf	___flmul@aexp
  2439  02E6  0ACC               	incf	___flmul@aexp,f
  2440  02E7  2AED               	goto	i1l1798
  2441  02E8                     i1l551:
  2442  02E8  1C4E               	btfss	___flmul@prod,0
  2443  02E9  2AEB               	goto	u260_21
  2444  02EA  2AEC               	goto	u260_20
  2445  02EB                     u260_21:
  2446  02EB  2AED               	goto	i1l1798
  2447  02EC                     u260_20:
  2448  02EC  2AE5               	goto	i1l1794
  2449  02ED                     i1l1798:
  2450  02ED  084C               	movf	___flmul@aexp,w
  2451  02EE  1903               	btfsc	3,2
  2452  02EF  2AF1               	goto	u261_21
  2453  02F0  2AF2               	goto	u261_20
  2454  02F1                     u261_21:
  2455  02F1  2B23               	goto	i1l1808
  2456  02F2                     u261_20:
  2457  02F2                     i1l1800:
  2458  02F2  3001               	movlw	1
  2459  02F3  07CE               	addwf	___flmul@prod,f
  2460  02F4  3000               	movlw	0
  2461  02F5  1803               	skipnc
  2462  02F6  3001               	movlw	1
  2463  02F7  07CF               	addwf	___flmul@prod+1,f
  2464  02F8  3000               	movlw	0
  2465  02F9  1803               	skipnc
  2466  02FA  3001               	movlw	1
  2467  02FB  07D0               	addwf	___flmul@prod+2,f
  2468  02FC  3000               	movlw	0
  2469  02FD  1803               	skipnc
  2470  02FE  3001               	movlw	1
  2471  02FF  07D1               	addwf	___flmul@prod+3,f
  2472  0300                     i1l1802:
  2473  0300  1C51               	btfss	___flmul@prod+3,0
  2474  0301  2B03               	goto	u262_21
  2475  0302  2B04               	goto	u262_20
  2476  0303                     u262_21:
  2477  0303  2B23               	goto	i1l1808
  2478  0304                     u262_20:
  2479  0304                     i1l1804:
  2480  0304  084E               	movf	___flmul@prod,w
  2481  0305  00C2               	movwf	??___flmul
  2482  0306  084F               	movf	___flmul@prod+1,w
  2483  0307  00C3               	movwf	??___flmul+1
  2484  0308  0850               	movf	___flmul@prod+2,w
  2485  0309  00C4               	movwf	??___flmul+2
  2486  030A  0851               	movf	___flmul@prod+3,w
  2487  030B  00C5               	movwf	??___flmul+3
  2488  030C  3001               	movlw	1
  2489  030D  00C6               	movwf	??___flmul+4
  2490  030E                     u263_25:
  2491  030E  0D45               	rlf	??___flmul+3,w
  2492  030F  0CC5               	rrf	??___flmul+3,f
  2493  0310  0CC4               	rrf	??___flmul+2,f
  2494  0311  0CC3               	rrf	??___flmul+1,f
  2495  0312  0CC2               	rrf	??___flmul,f
  2496  0313                     u263_20:
  2497  0313  0BC6               	decfsz	??___flmul+4,f
  2498  0314  2B0E               	goto	u263_25
  2499  0315  0845               	movf	??___flmul+3,w
  2500  0316  00D1               	movwf	___flmul@prod+3
  2501  0317  0844               	movf	??___flmul+2,w
  2502  0318  00D0               	movwf	___flmul@prod+2
  2503  0319  0843               	movf	??___flmul+1,w
  2504  031A  00CF               	movwf	___flmul@prod+1
  2505  031B  0842               	movf	??___flmul,w
  2506  031C  00CE               	movwf	___flmul@prod
  2507  031D                     i1l1806:
  2508  031D  3001               	movlw	1
  2509  031E  07D2               	addwf	___flmul@temp,f
  2510  031F  1803               	skipnc
  2511  0320  0AD3               	incf	___flmul@temp+1,f
  2512  0321  3000               	movlw	0
  2513  0322  07D3               	addwf	___flmul@temp+1,f
  2514  0323                     i1l1808:
  2515  0323  0853               	movf	___flmul@temp+1,w
  2516  0324  3A80               	xorlw	128
  2517  0325  00FF               	movwf	btemp+1
  2518  0326  3080               	movlw	128
  2519  0327  027F               	subwf	btemp+1,w
  2520  0328  1D03               	skipz
  2521  0329  2B2C               	goto	u264_25
  2522  032A  30FF               	movlw	255
  2523  032B  0252               	subwf	___flmul@temp,w
  2524  032C                     u264_25:
  2525  032C  1C03               	skipc
  2526  032D  2B2F               	goto	u264_21
  2527  032E  2B30               	goto	u264_20
  2528  032F                     u264_21:
  2529  032F  2B3B               	goto	i1l1812
  2530  0330                     u264_20:
  2531  0330                     i1l1810:
  2532  0330  307F               	movlw	127
  2533  0331  1283               	bcf	3,5	;RP0=0, select bank0
  2534  0332  1303               	bcf	3,6	;RP1=0, select bank0
  2535  0333  00D1               	movwf	___flmul@prod+3
  2536  0334  3080               	movlw	128
  2537  0335  00D0               	movwf	___flmul@prod+2
  2538  0336  3000               	movlw	0
  2539  0337  00CF               	movwf	___flmul@prod+1
  2540  0338  3000               	movlw	0
  2541  0339  00CE               	movwf	___flmul@prod
  2542  033A  2B70               	goto	i1l557
  2543  033B                     i1l1812:
  2544  033B  1283               	bcf	3,5	;RP0=0, select bank0
  2545  033C  1303               	bcf	3,6	;RP1=0, select bank0
  2546  033D  0853               	movf	___flmul@temp+1,w
  2547  033E  3A80               	xorlw	128
  2548  033F  00FF               	movwf	btemp+1
  2549  0340  3080               	movlw	128
  2550  0341  027F               	subwf	btemp+1,w
  2551  0342  1D03               	skipz
  2552  0343  2B46               	goto	u265_25
  2553  0344  3001               	movlw	1
  2554  0345  0252               	subwf	___flmul@temp,w
  2555  0346                     u265_25:
  2556  0346  1803               	skipnc
  2557  0347  2B49               	goto	u265_21
  2558  0348  2B4A               	goto	u265_20
  2559  0349                     u265_21:
  2560  0349  2B56               	goto	i1l1818
  2561  034A                     u265_20:
  2562  034A                     i1l1814:
  2563  034A  3000               	movlw	0
  2564  034B  1283               	bcf	3,5	;RP0=0, select bank0
  2565  034C  1303               	bcf	3,6	;RP1=0, select bank0
  2566  034D  00D1               	movwf	___flmul@prod+3
  2567  034E  3000               	movlw	0
  2568  034F  00D0               	movwf	___flmul@prod+2
  2569  0350  3000               	movlw	0
  2570  0351  00CF               	movwf	___flmul@prod+1
  2571  0352  3000               	movlw	0
  2572  0353  00CE               	movwf	___flmul@prod
  2573  0354                     i1l1816:
  2574  0354  01C7               	clrf	___flmul@sign
  2575  0355  2B70               	goto	i1l557
  2576  0356                     i1l1818:
  2577  0356  1283               	bcf	3,5	;RP0=0, select bank0
  2578  0357  1303               	bcf	3,6	;RP1=0, select bank0
  2579  0358  0852               	movf	___flmul@temp,w
  2580  0359  00C2               	movwf	??___flmul
  2581  035A  0842               	movf	??___flmul,w
  2582  035B  00CD               	movwf	___flmul@bexp
  2583  035C  30FF               	movlw	255
  2584  035D  05CE               	andwf	___flmul@prod,f
  2585  035E  30FF               	movlw	255
  2586  035F  05CF               	andwf	___flmul@prod+1,f
  2587  0360  307F               	movlw	127
  2588  0361  05D0               	andwf	___flmul@prod+2,f
  2589  0362  3000               	movlw	0
  2590  0363  05D1               	andwf	___flmul@prod+3,f
  2591  0364                     i1l1820:
  2592  0364  1C4D               	btfss	___flmul@bexp,0
  2593  0365  2B67               	goto	u266_21
  2594  0366  2B68               	goto	u266_20
  2595  0367                     u266_21:
  2596  0367  2B69               	goto	i1l1824
  2597  0368                     u266_20:
  2598  0368                     i1l1822:
  2599  0368  17D0               	bsf	___flmul@prod+2,7
  2600  0369                     i1l1824:
  2601  0369  084D               	movf	___flmul@bexp,w
  2602  036A  00C2               	movwf	??___flmul
  2603  036B  1003               	clrc
  2604  036C  0C42               	rrf	??___flmul,w
  2605  036D  00C3               	movwf	??___flmul+1
  2606  036E  0843               	movf	??___flmul+1,w
  2607  036F  00D1               	movwf	___flmul@prod+3
  2608  0370                     i1l557:
  2609  0370  0847               	movf	___flmul@sign,w
  2610  0371  00C2               	movwf	??___flmul
  2611  0372  0842               	movf	??___flmul,w
  2612  0373  04D1               	iorwf	___flmul@prod+3,f
  2613  0374                     i1l1826:
  2614  0374  0851               	movf	___flmul@prod+3,w
  2615  0375  00BD               	movwf	?___flmul+3
  2616  0376  0850               	movf	___flmul@prod+2,w
  2617  0377  00BC               	movwf	?___flmul+2
  2618  0378  084F               	movf	___flmul@prod+1,w
  2619  0379  00BB               	movwf	?___flmul+1
  2620  037A  084E               	movf	___flmul@prod,w
  2621  037B  00BA               	movwf	?___flmul
  2622  037C                     i1l545:
  2623  037C  0008               	return
  2624  037D                     __end_of___flmul:
  2625                           
  2626                           	psect	text7
  2627  0D3B                     __ptext7:	
  2628 ;; *************** function __Umul8_16 *****************
  2629 ;; Defined at:
  2630 ;;		line 4 in file "C:\Program Files\Microchip\xc8\v2.35\pic\sources\c90\common\Umul8_16.c"
  2631 ;; Parameters:    Size  Location     Type
  2632 ;;  multiplier      1    wreg     unsigned char 
  2633 ;;  multiplicand    1    0[COMMON] unsigned char 
  2634 ;; Auto vars:     Size  Location     Type
  2635 ;;  multiplier      1    8[COMMON] unsigned char 
  2636 ;;  word_mpld       2    6[COMMON] unsigned int 
  2637 ;;  product         2    4[COMMON] unsigned int 
  2638 ;; Return value:  Size  Location     Type
  2639 ;;                  2    0[COMMON] unsigned int 
  2640 ;; Registers used:
  2641 ;;		wreg, status,2, status,0
  2642 ;; Tracked objects:
  2643 ;;		On entry : 0/0
  2644 ;;		On exit  : 0/0
  2645 ;;		Unchanged: 0/0
  2646 ;; Data sizes:     COMMON   BANK0   BANK1   BANK3   BANK2
  2647 ;;      Params:         2       0       0       0       0
  2648 ;;      Locals:         5       0       0       0       0
  2649 ;;      Temps:          2       0       0       0       0
  2650 ;;      Totals:         9       0       0       0       0
  2651 ;;Total ram usage:        9 bytes
  2652 ;; Hardware stack levels used: 1
  2653 ;; This function calls:
  2654 ;;		Nothing
  2655 ;; This function is called by:
  2656 ;;		___flmul
  2657 ;; This function uses a non-reentrant model
  2658 ;;
  2659                           
  2660  0D3B                     __Umul8_16:	
  2661                           ;psect for function __Umul8_16
  2662                           
  2663                           
  2664                           ;incstack = 0
  2665                           ; Regs used in __Umul8_16: [wreg+status,2+status,0]
  2666                           ;__Umul8_16@multiplier stored from wreg
  2667  0D3B  00F8               	movwf	__Umul8_16@multiplier
  2668  0D3C                     i1l1304:
  2669  0D3C  01F4               	clrf	__Umul8_16@product
  2670  0D3D  01F5               	clrf	__Umul8_16@product+1
  2671  0D3E                     i1l1306:
  2672  0D3E  0870               	movf	__Umul8_16@multiplicand,w
  2673  0D3F  00F2               	movwf	??__Umul8_16
  2674  0D40  01F3               	clrf	??__Umul8_16+1
  2675  0D41  0872               	movf	??__Umul8_16,w
  2676  0D42  00F6               	movwf	__Umul8_16@word_mpld
  2677  0D43  0873               	movf	??__Umul8_16+1,w
  2678  0D44  00F7               	movwf	__Umul8_16@word_mpld+1
  2679  0D45                     i1l1308:
  2680  0D45  1C78               	btfss	__Umul8_16@multiplier,0
  2681  0D46  2D48               	goto	u142_21
  2682  0D47  2D49               	goto	u142_20
  2683  0D48                     u142_21:
  2684  0D48  2D4F               	goto	i1l564
  2685  0D49                     u142_20:
  2686  0D49                     i1l1310:
  2687  0D49  0876               	movf	__Umul8_16@word_mpld,w
  2688  0D4A  07F4               	addwf	__Umul8_16@product,f
  2689  0D4B  1803               	skipnc
  2690  0D4C  0AF5               	incf	__Umul8_16@product+1,f
  2691  0D4D  0877               	movf	__Umul8_16@word_mpld+1,w
  2692  0D4E  07F5               	addwf	__Umul8_16@product+1,f
  2693  0D4F                     i1l564:
  2694  0D4F  3001               	movlw	1
  2695  0D50                     u143_25:
  2696  0D50  1003               	clrc
  2697  0D51  0DF6               	rlf	__Umul8_16@word_mpld,f
  2698  0D52  0DF7               	rlf	__Umul8_16@word_mpld+1,f
  2699  0D53  3EFF               	addlw	-1
  2700  0D54  1D03               	skipz
  2701  0D55  2D50               	goto	u143_25
  2702  0D56  1003               	clrc
  2703  0D57  0CF8               	rrf	__Umul8_16@multiplier,f
  2704  0D58                     i1l1312:
  2705  0D58  0878               	movf	__Umul8_16@multiplier,w
  2706  0D59  1D03               	btfss	3,2
  2707  0D5A  2D5C               	goto	u144_21
  2708  0D5B  2D5D               	goto	u144_20
  2709  0D5C                     u144_21:
  2710  0D5C  2D45               	goto	i1l1308
  2711  0D5D                     u144_20:
  2712  0D5D                     i1l1314:
  2713  0D5D  0875               	movf	__Umul8_16@product+1,w
  2714  0D5E  00F1               	movwf	?__Umul8_16+1
  2715  0D5F  0874               	movf	__Umul8_16@product,w
  2716  0D60  00F0               	movwf	?__Umul8_16
  2717  0D61                     i1l566:
  2718  0D61  0008               	return
  2719  0D62                     __end_of__Umul8_16:
  2720                           
  2721                           	psect	text8
  2722  0605                     __ptext8:	
  2723 ;; *************** function ___fldiv *****************
  2724 ;; Defined at:
  2725 ;;		line 8 in file "C:\Program Files\Microchip\xc8\v2.35\pic\sources\c90\common\sprcdiv.c"
  2726 ;; Parameters:    Size  Location     Type
  2727 ;;  a               4    0[BANK0 ] unsigned int 
  2728 ;;  b               4    4[BANK0 ] unsigned int 
  2729 ;; Auto vars:     Size  Location     Type
  2730 ;;  grs             4   20[BANK0 ] unsigned long 
  2731 ;;  rem             4   13[BANK0 ] unsigned long 
  2732 ;;  new_exp         2   18[BANK0 ] int 
  2733 ;;  aexp            1   25[BANK0 ] unsigned char 
  2734 ;;  bexp            1   24[BANK0 ] unsigned char 
  2735 ;;  sign            1   17[BANK0 ] unsigned char 
  2736 ;; Return value:  Size  Location     Type
  2737 ;;                  4    0[BANK0 ] unsigned char 
  2738 ;; Registers used:
  2739 ;;		wreg, status,2, status,0, btemp+1
  2740 ;; Tracked objects:
  2741 ;;		On entry : 0/0
  2742 ;;		On exit  : 0/0
  2743 ;;		Unchanged: 0/0
  2744 ;; Data sizes:     COMMON   BANK0   BANK1   BANK3   BANK2
  2745 ;;      Params:         0       8       0       0       0
  2746 ;;      Locals:         0      13       0       0       0
  2747 ;;      Temps:          0       5       0       0       0
  2748 ;;      Totals:         0      26       0       0       0
  2749 ;;Total ram usage:       26 bytes
  2750 ;; Hardware stack levels used: 1
  2751 ;; This function calls:
  2752 ;;		Nothing
  2753 ;; This function is called by:
  2754 ;;		_map
  2755 ;; This function uses a non-reentrant model
  2756 ;;
  2757                           
  2758  0605                     ___fldiv:	
  2759                           ;psect for function ___fldiv
  2760                           
  2761  0605                     i1l1548:	
  2762                           ;incstack = 0
  2763                           ; Regs used in ___fldiv: [wreg+status,2+status,0+btemp+1]
  2764                           
  2765  0605  1283               	bcf	3,5	;RP0=0, select bank0
  2766  0606  1303               	bcf	3,6	;RP1=0, select bank0
  2767  0607  0827               	movf	___fldiv@b+3,w
  2768  0608  3980               	andlw	128
  2769  0609  00A8               	movwf	??___fldiv
  2770  060A  0828               	movf	??___fldiv,w
  2771  060B  00B1               	movwf	___fldiv@sign
  2772  060C                     i1l1550:
  2773  060C  0827               	movf	___fldiv@b+3,w
  2774  060D  00A8               	movwf	??___fldiv
  2775  060E  0728               	addwf	??___fldiv,w
  2776  060F  00A9               	movwf	??___fldiv+1
  2777  0610  0829               	movf	??___fldiv+1,w
  2778  0611  00B8               	movwf	___fldiv@bexp
  2779  0612                     i1l1552:
  2780  0612  1FA6               	btfss	___fldiv@b+2,7
  2781  0613  2E15               	goto	u201_21
  2782  0614  2E16               	goto	u201_20
  2783  0615                     u201_21:
  2784  0615  2E17               	goto	i1l1556
  2785  0616                     u201_20:
  2786  0616                     i1l1554:
  2787  0616  1438               	bsf	___fldiv@bexp,0
  2788  0617                     i1l1556:
  2789  0617  0838               	movf	___fldiv@bexp,w
  2790  0618  1903               	btfsc	3,2
  2791  0619  2E1B               	goto	u202_21
  2792  061A  2E1C               	goto	u202_20
  2793  061B                     u202_21:
  2794  061B  2E2C               	goto	i1l1566
  2795  061C                     u202_20:
  2796  061C                     i1l1558:
  2797  061C  0A38               	incf	___fldiv@bexp,w
  2798  061D  1D03               	btfss	3,2
  2799  061E  2E20               	goto	u203_21
  2800  061F  2E21               	goto	u203_20
  2801  0620                     u203_21:
  2802  0620  2E29               	goto	i1l1562
  2803  0621                     u203_20:
  2804  0621                     i1l1560:
  2805  0621  3000               	movlw	0
  2806  0622  00A7               	movwf	___fldiv@b+3
  2807  0623  3000               	movlw	0
  2808  0624  00A6               	movwf	___fldiv@b+2
  2809  0625  3000               	movlw	0
  2810  0626  00A5               	movwf	___fldiv@b+1
  2811  0627  3000               	movlw	0
  2812  0628  00A4               	movwf	___fldiv@b
  2813  0629                     i1l1562:
  2814  0629  17A6               	bsf	___fldiv@b+2,7
  2815  062A                     i1l1564:
  2816  062A  01A7               	clrf	___fldiv@b+3
  2817  062B  2E34               	goto	i1l1568
  2818  062C                     i1l1566:
  2819  062C  3000               	movlw	0
  2820  062D  00A7               	movwf	___fldiv@b+3
  2821  062E  3000               	movlw	0
  2822  062F  00A6               	movwf	___fldiv@b+2
  2823  0630  3000               	movlw	0
  2824  0631  00A5               	movwf	___fldiv@b+1
  2825  0632  3000               	movlw	0
  2826  0633  00A4               	movwf	___fldiv@b
  2827  0634                     i1l1568:
  2828  0634  0823               	movf	___fldiv@a+3,w
  2829  0635  3980               	andlw	128
  2830  0636  00A8               	movwf	??___fldiv
  2831  0637  0828               	movf	??___fldiv,w
  2832  0638  06B1               	xorwf	___fldiv@sign,f
  2833  0639                     i1l1570:
  2834  0639  0823               	movf	___fldiv@a+3,w
  2835  063A  00A8               	movwf	??___fldiv
  2836  063B  0728               	addwf	??___fldiv,w
  2837  063C  00A9               	movwf	??___fldiv+1
  2838  063D  0829               	movf	??___fldiv+1,w
  2839  063E  00B9               	movwf	___fldiv@aexp
  2840  063F                     i1l1572:
  2841  063F  1FA2               	btfss	___fldiv@a+2,7
  2842  0640  2E42               	goto	u204_21
  2843  0641  2E43               	goto	u204_20
  2844  0642                     u204_21:
  2845  0642  2E44               	goto	i1l1576
  2846  0643                     u204_20:
  2847  0643                     i1l1574:
  2848  0643  1439               	bsf	___fldiv@aexp,0
  2849  0644                     i1l1576:
  2850  0644  0839               	movf	___fldiv@aexp,w
  2851  0645  1903               	btfsc	3,2
  2852  0646  2E48               	goto	u205_21
  2853  0647  2E49               	goto	u205_20
  2854  0648                     u205_21:
  2855  0648  2E59               	goto	i1l1586
  2856  0649                     u205_20:
  2857  0649                     i1l1578:
  2858  0649  0A39               	incf	___fldiv@aexp,w
  2859  064A  1D03               	btfss	3,2
  2860  064B  2E4D               	goto	u206_21
  2861  064C  2E4E               	goto	u206_20
  2862  064D                     u206_21:
  2863  064D  2E56               	goto	i1l1582
  2864  064E                     u206_20:
  2865  064E                     i1l1580:
  2866  064E  3000               	movlw	0
  2867  064F  00A3               	movwf	___fldiv@a+3
  2868  0650  3000               	movlw	0
  2869  0651  00A2               	movwf	___fldiv@a+2
  2870  0652  3000               	movlw	0
  2871  0653  00A1               	movwf	___fldiv@a+1
  2872  0654  3000               	movlw	0
  2873  0655  00A0               	movwf	___fldiv@a
  2874  0656                     i1l1582:
  2875  0656  17A2               	bsf	___fldiv@a+2,7
  2876  0657                     i1l1584:
  2877  0657  01A3               	clrf	___fldiv@a+3
  2878  0658  2E61               	goto	i1l505
  2879  0659                     i1l1586:
  2880  0659  3000               	movlw	0
  2881  065A  00A3               	movwf	___fldiv@a+3
  2882  065B  3000               	movlw	0
  2883  065C  00A2               	movwf	___fldiv@a+2
  2884  065D  3000               	movlw	0
  2885  065E  00A1               	movwf	___fldiv@a+1
  2886  065F  3000               	movlw	0
  2887  0660  00A0               	movwf	___fldiv@a
  2888  0661                     i1l505:
  2889  0661  0823               	movf	___fldiv@a+3,w
  2890  0662  0422               	iorwf	___fldiv@a+2,w
  2891  0663  0421               	iorwf	___fldiv@a+1,w
  2892  0664  0420               	iorwf	___fldiv@a,w
  2893  0665  1D03               	skipz
  2894  0666  2E68               	goto	u207_21
  2895  0667  2E69               	goto	u207_20
  2896  0668                     u207_21:
  2897  0668  2E82               	goto	i1l1596
  2898  0669                     u207_20:
  2899  0669                     i1l1588:
  2900  0669  3000               	movlw	0
  2901  066A  00A7               	movwf	___fldiv@b+3
  2902  066B  3000               	movlw	0
  2903  066C  00A6               	movwf	___fldiv@b+2
  2904  066D  3000               	movlw	0
  2905  066E  00A5               	movwf	___fldiv@b+1
  2906  066F  3000               	movlw	0
  2907  0670  00A4               	movwf	___fldiv@b
  2908  0671  3080               	movlw	128
  2909  0672  04A6               	iorwf	___fldiv@b+2,f
  2910  0673  307F               	movlw	127
  2911  0674  04A7               	iorwf	___fldiv@b+3,f
  2912  0675                     i1l1590:
  2913  0675  0831               	movf	___fldiv@sign,w
  2914  0676  00A8               	movwf	??___fldiv
  2915  0677  0828               	movf	??___fldiv,w
  2916  0678  04A7               	iorwf	___fldiv@b+3,f
  2917  0679                     i1l1592:
  2918  0679  0827               	movf	___fldiv@b+3,w
  2919  067A  00A3               	movwf	?___fldiv+3
  2920  067B  0826               	movf	___fldiv@b+2,w
  2921  067C  00A2               	movwf	?___fldiv+2
  2922  067D  0825               	movf	___fldiv@b+1,w
  2923  067E  00A1               	movwf	?___fldiv+1
  2924  067F  0824               	movf	___fldiv@b,w
  2925  0680  00A0               	movwf	?___fldiv
  2926  0681  2FE1               	goto	i1l507
  2927  0682                     i1l1596:
  2928  0682  0838               	movf	___fldiv@bexp,w
  2929  0683  1D03               	btfss	3,2
  2930  0684  2E86               	goto	u208_21
  2931  0685  2E87               	goto	u208_20
  2932  0686                     u208_21:
  2933  0686  2E90               	goto	i1l1602
  2934  0687                     u208_20:
  2935  0687                     i1l1598:
  2936  0687  3000               	movlw	0
  2937  0688  00A3               	movwf	?___fldiv+3
  2938  0689  3000               	movlw	0
  2939  068A  00A2               	movwf	?___fldiv+2
  2940  068B  3000               	movlw	0
  2941  068C  00A1               	movwf	?___fldiv+1
  2942  068D  3000               	movlw	0
  2943  068E  00A0               	movwf	?___fldiv
  2944  068F  2FE1               	goto	i1l507
  2945  0690                     i1l1602:
  2946  0690  0838               	movf	___fldiv@bexp,w
  2947  0691  00A8               	movwf	??___fldiv
  2948  0692  01A9               	clrf	??___fldiv+1
  2949  0693  0829               	movf	??___fldiv+1,w
  2950  0694  00AB               	movwf	??___fldiv+3
  2951  0695  0839               	movf	___fldiv@aexp,w
  2952  0696  0228               	subwf	??___fldiv,w
  2953  0697  00AA               	movwf	??___fldiv+2
  2954  0698  1C03               	skipc
  2955  0699  03AB               	decf	??___fldiv+3,f
  2956  069A  082A               	movf	??___fldiv+2,w
  2957  069B  3E7F               	addlw	127
  2958  069C  00B2               	movwf	___fldiv@new_exp
  2959  069D  082B               	movf	??___fldiv+3,w
  2960  069E  1803               	skipnc
  2961  069F  3E01               	addlw	1
  2962  06A0  3E00               	addlw	0
  2963  06A1  00B3               	movwf	___fldiv@new_exp+1
  2964  06A2                     i1l1604:
  2965  06A2  0827               	movf	___fldiv@b+3,w
  2966  06A3  00B0               	movwf	___fldiv@rem+3
  2967  06A4  0826               	movf	___fldiv@b+2,w
  2968  06A5  00AF               	movwf	___fldiv@rem+2
  2969  06A6  0825               	movf	___fldiv@b+1,w
  2970  06A7  00AE               	movwf	___fldiv@rem+1
  2971  06A8  0824               	movf	___fldiv@b,w
  2972  06A9  00AD               	movwf	___fldiv@rem
  2973  06AA                     i1l1606:
  2974  06AA  3000               	movlw	0
  2975  06AB  00A7               	movwf	___fldiv@b+3
  2976  06AC  3000               	movlw	0
  2977  06AD  00A6               	movwf	___fldiv@b+2
  2978  06AE  3000               	movlw	0
  2979  06AF  00A5               	movwf	___fldiv@b+1
  2980  06B0  3000               	movlw	0
  2981  06B1  00A4               	movwf	___fldiv@b
  2982  06B2                     i1l1608:
  2983  06B2  3000               	movlw	0
  2984  06B3  00B7               	movwf	___fldiv@grs+3
  2985  06B4  3000               	movlw	0
  2986  06B5  00B6               	movwf	___fldiv@grs+2
  2987  06B6  3000               	movlw	0
  2988  06B7  00B5               	movwf	___fldiv@grs+1
  2989  06B8  3000               	movlw	0
  2990  06B9  00B4               	movwf	___fldiv@grs
  2991  06BA                     i1l1610:
  2992  06BA  01B9               	clrf	___fldiv@aexp
  2993  06BB  2F06               	goto	i1l1630
  2994  06BC                     i1l1612:
  2995  06BC  0839               	movf	___fldiv@aexp,w
  2996  06BD  1903               	btfsc	3,2
  2997  06BE  2EC0               	goto	u209_21
  2998  06BF  2EC1               	goto	u209_20
  2999  06C0                     u209_21:
  3000  06C0  2EE1               	goto	i1l1622
  3001  06C1                     u209_20:
  3002  06C1                     i1l1614:
  3003  06C1  3001               	movlw	1
  3004  06C2  00A8               	movwf	??___fldiv
  3005  06C3                     u210_25:
  3006  06C3  1003               	clrc
  3007  06C4  0DAD               	rlf	___fldiv@rem,f
  3008  06C5  0DAE               	rlf	___fldiv@rem+1,f
  3009  06C6  0DAF               	rlf	___fldiv@rem+2,f
  3010  06C7  0DB0               	rlf	___fldiv@rem+3,f
  3011  06C8  0BA8               	decfsz	??___fldiv,f
  3012  06C9  2EC3               	goto	u210_25
  3013  06CA  3001               	movlw	1
  3014  06CB  00A8               	movwf	??___fldiv
  3015  06CC                     u211_25:
  3016  06CC  1003               	clrc
  3017  06CD  0DA4               	rlf	___fldiv@b,f
  3018  06CE  0DA5               	rlf	___fldiv@b+1,f
  3019  06CF  0DA6               	rlf	___fldiv@b+2,f
  3020  06D0  0DA7               	rlf	___fldiv@b+3,f
  3021  06D1  0BA8               	decfsz	??___fldiv,f
  3022  06D2  2ECC               	goto	u211_25
  3023  06D3                     i1l1616:
  3024  06D3  1FB7               	btfss	___fldiv@grs+3,7
  3025  06D4  2ED6               	goto	u212_21
  3026  06D5  2ED7               	goto	u212_20
  3027  06D6                     u212_21:
  3028  06D6  2ED8               	goto	i1l1620
  3029  06D7                     u212_20:
  3030  06D7                     i1l1618:
  3031  06D7  1424               	bsf	___fldiv@b,0
  3032  06D8                     i1l1620:
  3033  06D8  3001               	movlw	1
  3034  06D9  00A8               	movwf	??___fldiv
  3035  06DA                     u213_25:
  3036  06DA  1003               	clrc
  3037  06DB  0DB4               	rlf	___fldiv@grs,f
  3038  06DC  0DB5               	rlf	___fldiv@grs+1,f
  3039  06DD  0DB6               	rlf	___fldiv@grs+2,f
  3040  06DE  0DB7               	rlf	___fldiv@grs+3,f
  3041  06DF  0BA8               	decfsz	??___fldiv,f
  3042  06E0  2EDA               	goto	u213_25
  3043  06E1                     i1l1622:
  3044  06E1  0823               	movf	___fldiv@a+3,w
  3045  06E2  0230               	subwf	___fldiv@rem+3,w
  3046  06E3  1D03               	skipz
  3047  06E4  2EEF               	goto	u214_25
  3048  06E5  0822               	movf	___fldiv@a+2,w
  3049  06E6  022F               	subwf	___fldiv@rem+2,w
  3050  06E7  1D03               	skipz
  3051  06E8  2EEF               	goto	u214_25
  3052  06E9  0821               	movf	___fldiv@a+1,w
  3053  06EA  022E               	subwf	___fldiv@rem+1,w
  3054  06EB  1D03               	skipz
  3055  06EC  2EEF               	goto	u214_25
  3056  06ED  0820               	movf	___fldiv@a,w
  3057  06EE  022D               	subwf	___fldiv@rem,w
  3058  06EF                     u214_25:
  3059  06EF  1C03               	skipc
  3060  06F0  2EF2               	goto	u214_21
  3061  06F1  2EF3               	goto	u214_20
  3062  06F2                     u214_21:
  3063  06F2  2F02               	goto	i1l1628
  3064  06F3                     u214_20:
  3065  06F3                     i1l1624:
  3066  06F3  1737               	bsf	___fldiv@grs+3,6
  3067  06F4                     i1l1626:
  3068  06F4  0820               	movf	___fldiv@a,w
  3069  06F5  02AD               	subwf	___fldiv@rem,f
  3070  06F6  0821               	movf	___fldiv@a+1,w
  3071  06F7  1C03               	skipc
  3072  06F8  0F21               	incfsz	___fldiv@a+1,w
  3073  06F9  02AE               	subwf	___fldiv@rem+1,f
  3074  06FA  0822               	movf	___fldiv@a+2,w
  3075  06FB  1C03               	skipc
  3076  06FC  0F22               	incfsz	___fldiv@a+2,w
  3077  06FD  02AF               	subwf	___fldiv@rem+2,f
  3078  06FE  0823               	movf	___fldiv@a+3,w
  3079  06FF  1C03               	skipc
  3080  0700  0F23               	incfsz	___fldiv@a+3,w
  3081  0701  02B0               	subwf	___fldiv@rem+3,f
  3082  0702                     i1l1628:
  3083  0702  3001               	movlw	1
  3084  0703  00A8               	movwf	??___fldiv
  3085  0704  0828               	movf	??___fldiv,w
  3086  0705  07B9               	addwf	___fldiv@aexp,f
  3087  0706                     i1l1630:
  3088  0706  301A               	movlw	26
  3089  0707  0239               	subwf	___fldiv@aexp,w
  3090  0708  1C03               	skipc
  3091  0709  2F0B               	goto	u215_21
  3092  070A  2F0C               	goto	u215_20
  3093  070B                     u215_21:
  3094  070B  2EBC               	goto	i1l1612
  3095  070C                     u215_20:
  3096  070C                     i1l1632:
  3097  070C  0830               	movf	___fldiv@rem+3,w
  3098  070D  042F               	iorwf	___fldiv@rem+2,w
  3099  070E  042E               	iorwf	___fldiv@rem+1,w
  3100  070F  042D               	iorwf	___fldiv@rem,w
  3101  0710  1903               	skipnz
  3102  0711  2F13               	goto	u216_21
  3103  0712  2F14               	goto	u216_20
  3104  0713                     u216_21:
  3105  0713  2F33               	goto	i1l1646
  3106  0714                     u216_20:
  3107  0714                     i1l1634:
  3108  0714  1434               	bsf	___fldiv@grs,0
  3109  0715  2F33               	goto	i1l1646
  3110  0716                     i1l1636:
  3111  0716  3001               	movlw	1
  3112  0717  00A8               	movwf	??___fldiv
  3113  0718                     u217_25:
  3114  0718  1003               	clrc
  3115  0719  0DA4               	rlf	___fldiv@b,f
  3116  071A  0DA5               	rlf	___fldiv@b+1,f
  3117  071B  0DA6               	rlf	___fldiv@b+2,f
  3118  071C  0DA7               	rlf	___fldiv@b+3,f
  3119  071D  0BA8               	decfsz	??___fldiv,f
  3120  071E  2F18               	goto	u217_25
  3121  071F                     i1l1638:
  3122  071F  1FB7               	btfss	___fldiv@grs+3,7
  3123  0720  2F22               	goto	u218_21
  3124  0721  2F23               	goto	u218_20
  3125  0722                     u218_21:
  3126  0722  2F24               	goto	i1l1642
  3127  0723                     u218_20:
  3128  0723                     i1l1640:
  3129  0723  1424               	bsf	___fldiv@b,0
  3130  0724                     i1l1642:
  3131  0724  3001               	movlw	1
  3132  0725  00A8               	movwf	??___fldiv
  3133  0726                     u219_25:
  3134  0726  1003               	clrc
  3135  0727  0DB4               	rlf	___fldiv@grs,f
  3136  0728  0DB5               	rlf	___fldiv@grs+1,f
  3137  0729  0DB6               	rlf	___fldiv@grs+2,f
  3138  072A  0DB7               	rlf	___fldiv@grs+3,f
  3139  072B  0BA8               	decfsz	??___fldiv,f
  3140  072C  2F26               	goto	u219_25
  3141  072D                     i1l1644:
  3142  072D  30FF               	movlw	255
  3143  072E  07B2               	addwf	___fldiv@new_exp,f
  3144  072F  1803               	skipnc
  3145  0730  0AB3               	incf	___fldiv@new_exp+1,f
  3146  0731  30FF               	movlw	255
  3147  0732  07B3               	addwf	___fldiv@new_exp+1,f
  3148  0733                     i1l1646:
  3149  0733  1FA6               	btfss	___fldiv@b+2,7
  3150  0734  2F36               	goto	u220_21
  3151  0735  2F37               	goto	u220_20
  3152  0736                     u220_21:
  3153  0736  2F16               	goto	i1l1636
  3154  0737                     u220_20:
  3155  0737                     i1l1648:
  3156  0737  01B9               	clrf	___fldiv@aexp
  3157  0738                     i1l1650:
  3158  0738  1FB7               	btfss	___fldiv@grs+3,7
  3159  0739  2F3B               	goto	u221_21
  3160  073A  2F3C               	goto	u221_20
  3161  073B                     u221_21:
  3162  073B  2F58               	goto	i1l1658
  3163  073C                     u221_20:
  3164  073C                     i1l1652:
  3165  073C  30FF               	movlw	255
  3166  073D  0534               	andwf	___fldiv@grs,w
  3167  073E  00A8               	movwf	??___fldiv
  3168  073F  30FF               	movlw	255
  3169  0740  0535               	andwf	___fldiv@grs+1,w
  3170  0741  00A9               	movwf	??___fldiv+1
  3171  0742  30FF               	movlw	255
  3172  0743  0536               	andwf	___fldiv@grs+2,w
  3173  0744  00AA               	movwf	??___fldiv+2
  3174  0745  307F               	movlw	127
  3175  0746  0537               	andwf	___fldiv@grs+3,w
  3176  0747  00AB               	movwf	??___fldiv+3
  3177  0748  082B               	movf	??___fldiv+3,w
  3178  0749  042A               	iorwf	??___fldiv+2,w
  3179  074A  0429               	iorwf	??___fldiv+1,w
  3180  074B  0428               	iorwf	??___fldiv,w
  3181  074C  1903               	skipnz
  3182  074D  2F4F               	goto	u222_21
  3183  074E  2F50               	goto	u222_20
  3184  074F                     u222_21:
  3185  074F  2F53               	goto	i1l521
  3186  0750                     u222_20:
  3187  0750                     i1l1654:
  3188  0750  01B9               	clrf	___fldiv@aexp
  3189  0751  0AB9               	incf	___fldiv@aexp,f
  3190  0752  2F58               	goto	i1l1658
  3191  0753                     i1l521:
  3192  0753  1C24               	btfss	___fldiv@b,0
  3193  0754  2F56               	goto	u223_21
  3194  0755  2F57               	goto	u223_20
  3195  0756                     u223_21:
  3196  0756  2F58               	goto	i1l1658
  3197  0757                     u223_20:
  3198  0757  2F50               	goto	i1l1654
  3199  0758                     i1l1658:
  3200  0758  0839               	movf	___fldiv@aexp,w
  3201  0759  1903               	btfsc	3,2
  3202  075A  2F5C               	goto	u224_21
  3203  075B  2F5D               	goto	u224_20
  3204  075C                     u224_21:
  3205  075C  2F8E               	goto	i1l1668
  3206  075D                     u224_20:
  3207  075D                     i1l1660:
  3208  075D  3001               	movlw	1
  3209  075E  07A4               	addwf	___fldiv@b,f
  3210  075F  3000               	movlw	0
  3211  0760  1803               	skipnc
  3212  0761  3001               	movlw	1
  3213  0762  07A5               	addwf	___fldiv@b+1,f
  3214  0763  3000               	movlw	0
  3215  0764  1803               	skipnc
  3216  0765  3001               	movlw	1
  3217  0766  07A6               	addwf	___fldiv@b+2,f
  3218  0767  3000               	movlw	0
  3219  0768  1803               	skipnc
  3220  0769  3001               	movlw	1
  3221  076A  07A7               	addwf	___fldiv@b+3,f
  3222  076B                     i1l1662:
  3223  076B  1C27               	btfss	___fldiv@b+3,0
  3224  076C  2F6E               	goto	u225_21
  3225  076D  2F6F               	goto	u225_20
  3226  076E                     u225_21:
  3227  076E  2F8E               	goto	i1l1668
  3228  076F                     u225_20:
  3229  076F                     i1l1664:
  3230  076F  0824               	movf	___fldiv@b,w
  3231  0770  00A8               	movwf	??___fldiv
  3232  0771  0825               	movf	___fldiv@b+1,w
  3233  0772  00A9               	movwf	??___fldiv+1
  3234  0773  0826               	movf	___fldiv@b+2,w
  3235  0774  00AA               	movwf	??___fldiv+2
  3236  0775  0827               	movf	___fldiv@b+3,w
  3237  0776  00AB               	movwf	??___fldiv+3
  3238  0777  3001               	movlw	1
  3239  0778  00AC               	movwf	??___fldiv+4
  3240  0779                     u226_25:
  3241  0779  0D2B               	rlf	??___fldiv+3,w
  3242  077A  0CAB               	rrf	??___fldiv+3,f
  3243  077B  0CAA               	rrf	??___fldiv+2,f
  3244  077C  0CA9               	rrf	??___fldiv+1,f
  3245  077D  0CA8               	rrf	??___fldiv,f
  3246  077E                     u226_20:
  3247  077E  0BAC               	decfsz	??___fldiv+4,f
  3248  077F  2F79               	goto	u226_25
  3249  0780  082B               	movf	??___fldiv+3,w
  3250  0781  00A7               	movwf	___fldiv@b+3
  3251  0782  082A               	movf	??___fldiv+2,w
  3252  0783  00A6               	movwf	___fldiv@b+2
  3253  0784  0829               	movf	??___fldiv+1,w
  3254  0785  00A5               	movwf	___fldiv@b+1
  3255  0786  0828               	movf	??___fldiv,w
  3256  0787  00A4               	movwf	___fldiv@b
  3257  0788                     i1l1666:
  3258  0788  3001               	movlw	1
  3259  0789  07B2               	addwf	___fldiv@new_exp,f
  3260  078A  1803               	skipnc
  3261  078B  0AB3               	incf	___fldiv@new_exp+1,f
  3262  078C  3000               	movlw	0
  3263  078D  07B3               	addwf	___fldiv@new_exp+1,f
  3264  078E                     i1l1668:
  3265  078E  0833               	movf	___fldiv@new_exp+1,w
  3266  078F  3A80               	xorlw	128
  3267  0790  00FF               	movwf	btemp+1
  3268  0791  3080               	movlw	128
  3269  0792  027F               	subwf	btemp+1,w
  3270  0793  1D03               	skipz
  3271  0794  2F97               	goto	u227_25
  3272  0795  30FF               	movlw	255
  3273  0796  0232               	subwf	___fldiv@new_exp,w
  3274  0797                     u227_25:
  3275  0797  1C03               	skipc
  3276  0798  2F9A               	goto	u227_21
  3277  0799  2F9B               	goto	u227_20
  3278  079A                     u227_21:
  3279  079A  2FA9               	goto	i1l1672
  3280  079B                     u227_20:
  3281  079B                     i1l1670:
  3282  079B  30FF               	movlw	255
  3283  079C  1283               	bcf	3,5	;RP0=0, select bank0
  3284  079D  1303               	bcf	3,6	;RP1=0, select bank0
  3285  079E  00B2               	movwf	___fldiv@new_exp
  3286  079F  3000               	movlw	0
  3287  07A0  00B3               	movwf	___fldiv@new_exp+1
  3288  07A1  3000               	movlw	0
  3289  07A2  00A7               	movwf	___fldiv@b+3
  3290  07A3  3000               	movlw	0
  3291  07A4  00A6               	movwf	___fldiv@b+2
  3292  07A5  3000               	movlw	0
  3293  07A6  00A5               	movwf	___fldiv@b+1
  3294  07A7  3000               	movlw	0
  3295  07A8  00A4               	movwf	___fldiv@b
  3296  07A9                     i1l1672:
  3297  07A9  1283               	bcf	3,5	;RP0=0, select bank0
  3298  07AA  1303               	bcf	3,6	;RP1=0, select bank0
  3299  07AB  0833               	movf	___fldiv@new_exp+1,w
  3300  07AC  3A80               	xorlw	128
  3301  07AD  00FF               	movwf	btemp+1
  3302  07AE  3080               	movlw	128
  3303  07AF  027F               	subwf	btemp+1,w
  3304  07B0  1D03               	skipz
  3305  07B1  2FB4               	goto	u228_25
  3306  07B2  3001               	movlw	1
  3307  07B3  0232               	subwf	___fldiv@new_exp,w
  3308  07B4                     u228_25:
  3309  07B4  1803               	skipnc
  3310  07B5  2FB7               	goto	u228_21
  3311  07B6  2FB8               	goto	u228_20
  3312  07B7                     u228_21:
  3313  07B7  2FC5               	goto	i1l527
  3314  07B8                     u228_20:
  3315  07B8                     i1l1674:
  3316  07B8  1283               	bcf	3,5	;RP0=0, select bank0
  3317  07B9  1303               	bcf	3,6	;RP1=0, select bank0
  3318  07BA  01B2               	clrf	___fldiv@new_exp
  3319  07BB  01B3               	clrf	___fldiv@new_exp+1
  3320  07BC                     i1l1676:
  3321  07BC  3000               	movlw	0
  3322  07BD  00A7               	movwf	___fldiv@b+3
  3323  07BE  3000               	movlw	0
  3324  07BF  00A6               	movwf	___fldiv@b+2
  3325  07C0  3000               	movlw	0
  3326  07C1  00A5               	movwf	___fldiv@b+1
  3327  07C2  3000               	movlw	0
  3328  07C3  00A4               	movwf	___fldiv@b
  3329  07C4                     i1l1678:
  3330  07C4  01B1               	clrf	___fldiv@sign
  3331  07C5                     i1l527:
  3332  07C5  1283               	bcf	3,5	;RP0=0, select bank0
  3333  07C6  1303               	bcf	3,6	;RP1=0, select bank0
  3334  07C7  0832               	movf	___fldiv@new_exp,w
  3335  07C8  00A8               	movwf	??___fldiv
  3336  07C9  0828               	movf	??___fldiv,w
  3337  07CA  00B8               	movwf	___fldiv@bexp
  3338  07CB                     i1l1680:
  3339  07CB  1C38               	btfss	___fldiv@bexp,0
  3340  07CC  2FCE               	goto	u229_21
  3341  07CD  2FCF               	goto	u229_20
  3342  07CE                     u229_21:
  3343  07CE  2FD1               	goto	i1l1684
  3344  07CF                     u229_20:
  3345  07CF                     i1l1682:
  3346  07CF  17A6               	bsf	___fldiv@b+2,7
  3347  07D0  2FD5               	goto	i1l529
  3348  07D1                     i1l1684:
  3349  07D1  307F               	movlw	127
  3350  07D2  00A8               	movwf	??___fldiv
  3351  07D3  0828               	movf	??___fldiv,w
  3352  07D4  05A6               	andwf	___fldiv@b+2,f
  3353  07D5                     i1l529:
  3354  07D5  0838               	movf	___fldiv@bexp,w
  3355  07D6  00A8               	movwf	??___fldiv
  3356  07D7  1003               	clrc
  3357  07D8  0C28               	rrf	??___fldiv,w
  3358  07D9  00A9               	movwf	??___fldiv+1
  3359  07DA  0829               	movf	??___fldiv+1,w
  3360  07DB  00A7               	movwf	___fldiv@b+3
  3361  07DC  0831               	movf	___fldiv@sign,w
  3362  07DD  00A8               	movwf	??___fldiv
  3363  07DE  0828               	movf	??___fldiv,w
  3364  07DF  04A7               	iorwf	___fldiv@b+3,f
  3365  07E0  2E79               	goto	i1l1592
  3366  07E1                     i1l507:
  3367  07E1  0008               	return
  3368  07E2                     __end_of___fldiv:
  3369                           
  3370                           	psect	text9
  3371  037D                     __ptext9:	
  3372 ;; *************** function ___fladd *****************
  3373 ;; Defined at:
  3374 ;;		line 10 in file "C:\Program Files\Microchip\xc8\v2.35\pic\sources\c90\common\sprcadd.c"
  3375 ;; Parameters:    Size  Location     Type
  3376 ;;  b               4   52[BANK0 ] unsigned char 
  3377 ;;  a               4   56[BANK0 ] unsigned char 
  3378 ;; Auto vars:     Size  Location     Type
  3379 ;;  grs             1   71[BANK0 ] unsigned char 
  3380 ;;  bexp            1   70[BANK0 ] unsigned char 
  3381 ;;  aexp            1   69[BANK0 ] unsigned char 
  3382 ;;  signs           1   68[BANK0 ] unsigned char 
  3383 ;; Return value:  Size  Location     Type
  3384 ;;                  4   52[BANK0 ] unsigned char 
  3385 ;; Registers used:
  3386 ;;		wreg, status,2, status,0, btemp+1
  3387 ;; Tracked objects:
  3388 ;;		On entry : 0/0
  3389 ;;		On exit  : 0/0
  3390 ;;		Unchanged: 0/0
  3391 ;; Data sizes:     COMMON   BANK0   BANK1   BANK3   BANK2
  3392 ;;      Params:         0       8       0       0       0
  3393 ;;      Locals:         0       4       0       0       0
  3394 ;;      Temps:          0       8       0       0       0
  3395 ;;      Totals:         0      20       0       0       0
  3396 ;;Total ram usage:       20 bytes
  3397 ;; Hardware stack levels used: 1
  3398 ;; This function calls:
  3399 ;;		Nothing
  3400 ;; This function is called by:
  3401 ;;		_map
  3402 ;; This function uses a non-reentrant model
  3403 ;;
  3404                           
  3405  037D                     ___fladd:	
  3406                           ;psect for function ___fladd
  3407                           
  3408  037D                     i1l1354:	
  3409                           ;incstack = 0
  3410                           ; Regs used in ___fladd: [wreg+status,2+status,0+btemp+1]
  3411                           
  3412  037D  1283               	bcf	3,5	;RP0=0, select bank0
  3413  037E  1303               	bcf	3,6	;RP1=0, select bank0
  3414  037F  0857               	movf	___fladd@b+3,w
  3415  0380  3980               	andlw	128
  3416  0381  00DC               	movwf	??___fladd
  3417  0382  085C               	movf	??___fladd,w
  3418  0383  00E4               	movwf	___fladd@signs
  3419  0384                     i1l1356:
  3420  0384  0857               	movf	___fladd@b+3,w
  3421  0385  00DC               	movwf	??___fladd
  3422  0386  075C               	addwf	??___fladd,w
  3423  0387  00DD               	movwf	??___fladd+1
  3424  0388  085D               	movf	??___fladd+1,w
  3425  0389  00E6               	movwf	___fladd@bexp
  3426  038A                     i1l1358:
  3427  038A  1FD6               	btfss	___fladd@b+2,7
  3428  038B  2B8D               	goto	u155_21
  3429  038C  2B8E               	goto	u155_20
  3430  038D                     u155_21:
  3431  038D  2B8F               	goto	i1l1362
  3432  038E                     u155_20:
  3433  038E                     i1l1360:
  3434  038E  1466               	bsf	___fladd@bexp,0
  3435  038F                     i1l1362:
  3436  038F  0866               	movf	___fladd@bexp,w
  3437  0390  1903               	btfsc	3,2
  3438  0391  2B93               	goto	u156_21
  3439  0392  2B94               	goto	u156_20
  3440  0393                     u156_21:
  3441  0393  2BA4               	goto	i1l1372
  3442  0394                     u156_20:
  3443  0394                     i1l1364:
  3444  0394  0A66               	incf	___fladd@bexp,w
  3445  0395  1D03               	btfss	3,2
  3446  0396  2B98               	goto	u157_21
  3447  0397  2B99               	goto	u157_20
  3448  0398                     u157_21:
  3449  0398  2BA1               	goto	i1l1368
  3450  0399                     u157_20:
  3451  0399                     i1l1366:
  3452  0399  3000               	movlw	0
  3453  039A  00D7               	movwf	___fladd@b+3
  3454  039B  3000               	movlw	0
  3455  039C  00D6               	movwf	___fladd@b+2
  3456  039D  3000               	movlw	0
  3457  039E  00D5               	movwf	___fladd@b+1
  3458  039F  3000               	movlw	0
  3459  03A0  00D4               	movwf	___fladd@b
  3460  03A1                     i1l1368:
  3461  03A1  17D6               	bsf	___fladd@b+2,7
  3462  03A2                     i1l1370:
  3463  03A2  01D7               	clrf	___fladd@b+3
  3464  03A3  2BAC               	goto	i1l1374
  3465  03A4                     i1l1372:
  3466  03A4  3000               	movlw	0
  3467  03A5  00D7               	movwf	___fladd@b+3
  3468  03A6  3000               	movlw	0
  3469  03A7  00D6               	movwf	___fladd@b+2
  3470  03A8  3000               	movlw	0
  3471  03A9  00D5               	movwf	___fladd@b+1
  3472  03AA  3000               	movlw	0
  3473  03AB  00D4               	movwf	___fladd@b
  3474  03AC                     i1l1374:
  3475  03AC  085B               	movf	___fladd@a+3,w
  3476  03AD  3980               	andlw	128
  3477  03AE  00DC               	movwf	??___fladd
  3478  03AF  085C               	movf	??___fladd,w
  3479  03B0  00E5               	movwf	___fladd@aexp
  3480  03B1                     i1l1376:
  3481  03B1  0865               	movf	___fladd@aexp,w
  3482  03B2  0664               	xorwf	___fladd@signs,w
  3483  03B3  1903               	skipnz
  3484  03B4  2BB6               	goto	u158_21
  3485  03B5  2BB7               	goto	u158_20
  3486  03B6                     u158_21:
  3487  03B6  2BB8               	goto	i1l1380
  3488  03B7                     u158_20:
  3489  03B7                     i1l1378:
  3490  03B7  1764               	bsf	___fladd@signs,6
  3491  03B8                     i1l1380:
  3492  03B8  085B               	movf	___fladd@a+3,w
  3493  03B9  00DC               	movwf	??___fladd
  3494  03BA  075C               	addwf	??___fladd,w
  3495  03BB  00DD               	movwf	??___fladd+1
  3496  03BC  085D               	movf	??___fladd+1,w
  3497  03BD  00E5               	movwf	___fladd@aexp
  3498  03BE                     i1l1382:
  3499  03BE  1FDA               	btfss	___fladd@a+2,7
  3500  03BF  2BC1               	goto	u159_21
  3501  03C0  2BC2               	goto	u159_20
  3502  03C1                     u159_21:
  3503  03C1  2BC3               	goto	i1l1386
  3504  03C2                     u159_20:
  3505  03C2                     i1l1384:
  3506  03C2  1465               	bsf	___fladd@aexp,0
  3507  03C3                     i1l1386:
  3508  03C3  0865               	movf	___fladd@aexp,w
  3509  03C4  1903               	btfsc	3,2
  3510  03C5  2BC7               	goto	u160_21
  3511  03C6  2BC8               	goto	u160_20
  3512  03C7                     u160_21:
  3513  03C7  2BD8               	goto	i1l1396
  3514  03C8                     u160_20:
  3515  03C8                     i1l1388:
  3516  03C8  0A65               	incf	___fladd@aexp,w
  3517  03C9  1D03               	btfss	3,2
  3518  03CA  2BCC               	goto	u161_21
  3519  03CB  2BCD               	goto	u161_20
  3520  03CC                     u161_21:
  3521  03CC  2BD5               	goto	i1l1392
  3522  03CD                     u161_20:
  3523  03CD                     i1l1390:
  3524  03CD  3000               	movlw	0
  3525  03CE  00DB               	movwf	___fladd@a+3
  3526  03CF  3000               	movlw	0
  3527  03D0  00DA               	movwf	___fladd@a+2
  3528  03D1  3000               	movlw	0
  3529  03D2  00D9               	movwf	___fladd@a+1
  3530  03D3  3000               	movlw	0
  3531  03D4  00D8               	movwf	___fladd@a
  3532  03D5                     i1l1392:
  3533  03D5  17DA               	bsf	___fladd@a+2,7
  3534  03D6                     i1l1394:
  3535  03D6  01DB               	clrf	___fladd@a+3
  3536  03D7  2BE0               	goto	i1l449
  3537  03D8                     i1l1396:
  3538  03D8  3000               	movlw	0
  3539  03D9  00DB               	movwf	___fladd@a+3
  3540  03DA  3000               	movlw	0
  3541  03DB  00DA               	movwf	___fladd@a+2
  3542  03DC  3000               	movlw	0
  3543  03DD  00D9               	movwf	___fladd@a+1
  3544  03DE  3000               	movlw	0
  3545  03DF  00D8               	movwf	___fladd@a
  3546  03E0                     i1l449:
  3547  03E0  0866               	movf	___fladd@bexp,w
  3548  03E1  0265               	subwf	___fladd@aexp,w
  3549  03E2  1803               	skipnc
  3550  03E3  2BE5               	goto	u162_21
  3551  03E4  2BE6               	goto	u162_20
  3552  03E5                     u162_21:
  3553  03E5  2C2A               	goto	i1l1432
  3554  03E6                     u162_20:
  3555  03E6                     i1l1398:
  3556  03E6  1F64               	btfss	___fladd@signs,6
  3557  03E7  2BE9               	goto	u163_21
  3558  03E8  2BEA               	goto	u163_20
  3559  03E9                     u163_21:
  3560  03E9  2BEE               	goto	i1l1402
  3561  03EA                     u163_20:
  3562  03EA                     i1l1400:
  3563  03EA  3080               	movlw	128
  3564  03EB  00DC               	movwf	??___fladd
  3565  03EC  085C               	movf	??___fladd,w
  3566  03ED  06E4               	xorwf	___fladd@signs,f
  3567  03EE                     i1l1402:
  3568  03EE  0866               	movf	___fladd@bexp,w
  3569  03EF  00DC               	movwf	??___fladd
  3570  03F0  085C               	movf	??___fladd,w
  3571  03F1  00E7               	movwf	___fladd@grs
  3572  03F2                     i1l1404:
  3573  03F2  0865               	movf	___fladd@aexp,w
  3574  03F3  00DC               	movwf	??___fladd
  3575  03F4  085C               	movf	??___fladd,w
  3576  03F5  00E6               	movwf	___fladd@bexp
  3577  03F6                     i1l1406:
  3578  03F6  0867               	movf	___fladd@grs,w
  3579  03F7  00DC               	movwf	??___fladd
  3580  03F8  085C               	movf	??___fladd,w
  3581  03F9  00E5               	movwf	___fladd@aexp
  3582  03FA                     i1l1408:
  3583  03FA  0854               	movf	___fladd@b,w
  3584  03FB  00DC               	movwf	??___fladd
  3585  03FC  085C               	movf	??___fladd,w
  3586  03FD  00E7               	movwf	___fladd@grs
  3587  03FE                     i1l1410:
  3588  03FE  0858               	movf	___fladd@a,w
  3589  03FF  00DC               	movwf	??___fladd
  3590  0400  085C               	movf	??___fladd,w
  3591  0401  00D4               	movwf	___fladd@b
  3592  0402                     i1l1412:
  3593  0402  0867               	movf	___fladd@grs,w
  3594  0403  00DC               	movwf	??___fladd
  3595  0404  085C               	movf	??___fladd,w
  3596  0405  00D8               	movwf	___fladd@a
  3597  0406                     i1l1414:
  3598  0406  0855               	movf	___fladd@b+1,w
  3599  0407  00DC               	movwf	??___fladd
  3600  0408  085C               	movf	??___fladd,w
  3601  0409  00E7               	movwf	___fladd@grs
  3602  040A                     i1l1416:
  3603  040A  0859               	movf	___fladd@a+1,w
  3604  040B  00DC               	movwf	??___fladd
  3605  040C  085C               	movf	??___fladd,w
  3606  040D  00D5               	movwf	___fladd@b+1
  3607  040E                     i1l1418:
  3608  040E  0867               	movf	___fladd@grs,w
  3609  040F  00DC               	movwf	??___fladd
  3610  0410  085C               	movf	??___fladd,w
  3611  0411  00D9               	movwf	___fladd@a+1
  3612  0412                     i1l1420:
  3613  0412  0856               	movf	___fladd@b+2,w
  3614  0413  00DC               	movwf	??___fladd
  3615  0414  085C               	movf	??___fladd,w
  3616  0415  00E7               	movwf	___fladd@grs
  3617  0416                     i1l1422:
  3618  0416  085A               	movf	___fladd@a+2,w
  3619  0417  00DC               	movwf	??___fladd
  3620  0418  085C               	movf	??___fladd,w
  3621  0419  00D6               	movwf	___fladd@b+2
  3622  041A                     i1l1424:
  3623  041A  0867               	movf	___fladd@grs,w
  3624  041B  00DC               	movwf	??___fladd
  3625  041C  085C               	movf	??___fladd,w
  3626  041D  00DA               	movwf	___fladd@a+2
  3627  041E                     i1l1426:
  3628  041E  0857               	movf	___fladd@b+3,w
  3629  041F  00DC               	movwf	??___fladd
  3630  0420  085C               	movf	??___fladd,w
  3631  0421  00E7               	movwf	___fladd@grs
  3632  0422                     i1l1428:
  3633  0422  085B               	movf	___fladd@a+3,w
  3634  0423  00DC               	movwf	??___fladd
  3635  0424  085C               	movf	??___fladd,w
  3636  0425  00D7               	movwf	___fladd@b+3
  3637  0426                     i1l1430:
  3638  0426  0867               	movf	___fladd@grs,w
  3639  0427  00DC               	movwf	??___fladd
  3640  0428  085C               	movf	??___fladd,w
  3641  0429  00DB               	movwf	___fladd@a+3
  3642  042A                     i1l1432:
  3643  042A  01E7               	clrf	___fladd@grs
  3644  042B                     i1l1434:
  3645  042B  0865               	movf	___fladd@aexp,w
  3646  042C  00DC               	movwf	??___fladd
  3647  042D  01DD               	clrf	??___fladd+1
  3648  042E  085D               	movf	??___fladd+1,w
  3649  042F  00DF               	movwf	??___fladd+3
  3650  0430  0866               	movf	___fladd@bexp,w
  3651  0431  025C               	subwf	??___fladd,w
  3652  0432  00DE               	movwf	??___fladd+2
  3653  0433  1C03               	skipc
  3654  0434  03DF               	decf	??___fladd+3,f
  3655  0435  085F               	movf	??___fladd+3,w
  3656  0436  3A80               	xorlw	128
  3657  0437  00FF               	movwf	btemp+1
  3658  0438  3080               	movlw	128
  3659  0439  027F               	subwf	btemp+1,w
  3660  043A  1D03               	skipz
  3661  043B  2C3E               	goto	u164_25
  3662  043C  301A               	movlw	26
  3663  043D  025E               	subwf	??___fladd+2,w
  3664  043E                     u164_25:
  3665  043E  1C03               	skipc
  3666  043F  2C41               	goto	u164_21
  3667  0440  2C42               	goto	u164_20
  3668  0441                     u164_21:
  3669  0441  2C7F               	goto	i1l1450
  3670  0442                     u164_20:
  3671  0442                     i1l1436:
  3672  0442  1283               	bcf	3,5	;RP0=0, select bank0
  3673  0443  1303               	bcf	3,6	;RP1=0, select bank0
  3674  0444  0857               	movf	___fladd@b+3,w
  3675  0445  0456               	iorwf	___fladd@b+2,w
  3676  0446  0455               	iorwf	___fladd@b+1,w
  3677  0447  0454               	iorwf	___fladd@b,w
  3678  0448  1D03               	skipz
  3679  0449  2C4B               	goto	u165_21
  3680  044A  2C4D               	goto	u165_20
  3681  044B                     u165_21:
  3682  044B  3001               	movlw	1
  3683  044C  2C4E               	goto	u166_20
  3684  044D                     u165_20:
  3685  044D  3000               	movlw	0
  3686  044E                     u166_20:
  3687  044E  00DC               	movwf	??___fladd
  3688  044F  085C               	movf	??___fladd,w
  3689  0450  00E7               	movwf	___fladd@grs
  3690  0451  3000               	movlw	0
  3691  0452  00D7               	movwf	___fladd@b+3
  3692  0453  3000               	movlw	0
  3693  0454  00D6               	movwf	___fladd@b+2
  3694  0455  3000               	movlw	0
  3695  0456  00D5               	movwf	___fladd@b+1
  3696  0457  3000               	movlw	0
  3697  0458  00D4               	movwf	___fladd@b
  3698  0459  0865               	movf	___fladd@aexp,w
  3699  045A  00DC               	movwf	??___fladd
  3700  045B  085C               	movf	??___fladd,w
  3701  045C  00E6               	movwf	___fladd@bexp
  3702  045D  2C87               	goto	i1l453
  3703  045E                     i1l455:
  3704  045E  1C67               	btfss	___fladd@grs,0
  3705  045F  2C61               	goto	u167_21
  3706  0460  2C62               	goto	u167_20
  3707  0461                     u167_21:
  3708  0461  2C6B               	goto	i1l1440
  3709  0462                     u167_20:
  3710  0462                     i1l1438:
  3711  0462  0867               	movf	___fladd@grs,w
  3712  0463  00DC               	movwf	??___fladd
  3713  0464  1003               	clrc
  3714  0465  0C5C               	rrf	??___fladd,w
  3715  0466  3801               	iorlw	1
  3716  0467  00DD               	movwf	??___fladd+1
  3717  0468  085D               	movf	??___fladd+1,w
  3718  0469  00E7               	movwf	___fladd@grs
  3719  046A  2C6D               	goto	i1l1442
  3720  046B                     i1l1440:
  3721  046B  1003               	clrc
  3722  046C  0CE7               	rrf	___fladd@grs,f
  3723  046D                     i1l1442:
  3724  046D  1C54               	btfss	___fladd@b,0
  3725  046E  2C70               	goto	u168_21
  3726  046F  2C71               	goto	u168_20
  3727  0470                     u168_21:
  3728  0470  2C72               	goto	i1l1446
  3729  0471                     u168_20:
  3730  0471                     i1l1444:
  3731  0471  17E7               	bsf	___fladd@grs,7
  3732  0472                     i1l1446:
  3733  0472  3001               	movlw	1
  3734  0473  00DC               	movwf	??___fladd
  3735  0474                     u169_25:
  3736  0474  0D57               	rlf	___fladd@b+3,w
  3737  0475  0CD7               	rrf	___fladd@b+3,f
  3738  0476  0CD6               	rrf	___fladd@b+2,f
  3739  0477  0CD5               	rrf	___fladd@b+1,f
  3740  0478  0CD4               	rrf	___fladd@b,f
  3741  0479  0BDC               	decfsz	??___fladd& (0+127),f
  3742  047A  2C74               	goto	u169_25
  3743  047B                     i1l1448:
  3744  047B  3001               	movlw	1
  3745  047C  00DC               	movwf	??___fladd
  3746  047D  085C               	movf	??___fladd,w
  3747  047E  07E6               	addwf	___fladd@bexp,f
  3748  047F                     i1l1450:
  3749  047F  1283               	bcf	3,5	;RP0=0, select bank0
  3750  0480  1303               	bcf	3,6	;RP1=0, select bank0
  3751  0481  0865               	movf	___fladd@aexp,w
  3752  0482  0266               	subwf	___fladd@bexp,w
  3753  0483  1C03               	skipc
  3754  0484  2C86               	goto	u170_21
  3755  0485  2C87               	goto	u170_20
  3756  0486                     u170_21:
  3757  0486  2C5E               	goto	i1l455
  3758  0487                     u170_20:
  3759  0487                     i1l453:
  3760  0487  1B64               	btfsc	___fladd@signs,6
  3761  0488  2C8A               	goto	u171_21
  3762  0489  2C8B               	goto	u171_20
  3763  048A                     u171_21:
  3764  048A  2CD6               	goto	i1l1476
  3765  048B                     u171_20:
  3766  048B                     i1l1452:
  3767  048B  0866               	movf	___fladd@bexp,w
  3768  048C  1D03               	btfss	3,2
  3769  048D  2C8F               	goto	u172_21
  3770  048E  2C90               	goto	u172_20
  3771  048F                     u172_21:
  3772  048F  2C99               	goto	i1l1458
  3773  0490                     u172_20:
  3774  0490                     i1l1454:
  3775  0490  3000               	movlw	0
  3776  0491  00D7               	movwf	?___fladd+3
  3777  0492  3000               	movlw	0
  3778  0493  00D6               	movwf	?___fladd+2
  3779  0494  3000               	movlw	0
  3780  0495  00D5               	movwf	?___fladd+1
  3781  0496  3000               	movlw	0
  3782  0497  00D4               	movwf	?___fladd
  3783  0498  2E04               	goto	i1l462
  3784  0499                     i1l1458:
  3785  0499  0858               	movf	___fladd@a,w
  3786  049A  07D4               	addwf	___fladd@b,f
  3787  049B  0859               	movf	___fladd@a+1,w
  3788  049C  1103               	clrz
  3789  049D  1803               	skipnc
  3790  049E  3E01               	addlw	1
  3791  049F  1903               	skipnz
  3792  04A0  2CA2               	goto	u173_21
  3793  04A1  07D5               	addwf	___fladd@b+1,f
  3794  04A2                     u173_21:
  3795  04A2  085A               	movf	___fladd@a+2,w
  3796  04A3  1103               	clrz
  3797  04A4  1803               	skipnc
  3798  04A5  3E01               	addlw	1
  3799  04A6  1903               	skipnz
  3800  04A7  2CA9               	goto	u173_22
  3801  04A8  07D6               	addwf	___fladd@b+2,f
  3802  04A9                     u173_22:
  3803  04A9  085B               	movf	___fladd@a+3,w
  3804  04AA  1103               	clrz
  3805  04AB  1803               	skipnc
  3806  04AC  3E01               	addlw	1
  3807  04AD  1903               	skipnz
  3808  04AE  2CB0               	goto	u173_23
  3809  04AF  07D7               	addwf	___fladd@b+3,f
  3810  04B0                     u173_23:
  3811  04B0                     i1l1460:
  3812  04B0  1C57               	btfss	___fladd@b+3,0
  3813  04B1  2CB3               	goto	u174_21
  3814  04B2  2CB4               	goto	u174_20
  3815  04B3                     u174_21:
  3816  04B3  2D8A               	goto	i1l1510
  3817  04B4                     u174_20:
  3818  04B4                     i1l1462:
  3819  04B4  1C67               	btfss	___fladd@grs,0
  3820  04B5  2CB7               	goto	u175_21
  3821  04B6  2CB8               	goto	u175_20
  3822  04B7                     u175_21:
  3823  04B7  2CC1               	goto	i1l1466
  3824  04B8                     u175_20:
  3825  04B8                     i1l1464:
  3826  04B8  0867               	movf	___fladd@grs,w
  3827  04B9  00DC               	movwf	??___fladd
  3828  04BA  1003               	clrc
  3829  04BB  0C5C               	rrf	??___fladd,w
  3830  04BC  3801               	iorlw	1
  3831  04BD  00DD               	movwf	??___fladd+1
  3832  04BE  085D               	movf	??___fladd+1,w
  3833  04BF  00E7               	movwf	___fladd@grs
  3834  04C0  2CC3               	goto	i1l1468
  3835  04C1                     i1l1466:
  3836  04C1  1003               	clrc
  3837  04C2  0CE7               	rrf	___fladd@grs,f
  3838  04C3                     i1l1468:
  3839  04C3  1C54               	btfss	___fladd@b,0
  3840  04C4  2CC6               	goto	u176_21
  3841  04C5  2CC7               	goto	u176_20
  3842  04C6                     u176_21:
  3843  04C6  2CC8               	goto	i1l1472
  3844  04C7                     u176_20:
  3845  04C7                     i1l1470:
  3846  04C7  17E7               	bsf	___fladd@grs,7
  3847  04C8                     i1l1472:
  3848  04C8  3001               	movlw	1
  3849  04C9  00DC               	movwf	??___fladd
  3850  04CA                     u177_25:
  3851  04CA  0D57               	rlf	___fladd@b+3,w
  3852  04CB  0CD7               	rrf	___fladd@b+3,f
  3853  04CC  0CD6               	rrf	___fladd@b+2,f
  3854  04CD  0CD5               	rrf	___fladd@b+1,f
  3855  04CE  0CD4               	rrf	___fladd@b,f
  3856  04CF  0BDC               	decfsz	??___fladd& (0+127),f
  3857  04D0  2CCA               	goto	u177_25
  3858  04D1                     i1l1474:
  3859  04D1  3001               	movlw	1
  3860  04D2  00DC               	movwf	??___fladd
  3861  04D3  085C               	movf	??___fladd,w
  3862  04D4  07E6               	addwf	___fladd@bexp,f
  3863  04D5  2D8A               	goto	i1l1510
  3864  04D6                     i1l1476:
  3865  04D6  0857               	movf	___fladd@b+3,w
  3866  04D7  3A80               	xorlw	128
  3867  04D8  00FF               	movwf	btemp+1
  3868  04D9  085B               	movf	___fladd@a+3,w
  3869  04DA  3A80               	xorlw	128
  3870  04DB  027F               	subwf	btemp+1,w
  3871  04DC  1D03               	skipz
  3872  04DD  2CE8               	goto	u178_23
  3873  04DE  085A               	movf	___fladd@a+2,w
  3874  04DF  0256               	subwf	___fladd@b+2,w
  3875  04E0  1D03               	skipz
  3876  04E1  2CE8               	goto	u178_23
  3877  04E2  0859               	movf	___fladd@a+1,w
  3878  04E3  0255               	subwf	___fladd@b+1,w
  3879  04E4  1D03               	skipz
  3880  04E5  2CE8               	goto	u178_23
  3881  04E6  0858               	movf	___fladd@a,w
  3882  04E7  0254               	subwf	___fladd@b,w
  3883  04E8                     u178_23:
  3884  04E8  1803               	skipnc
  3885  04E9  2CEB               	goto	u178_21
  3886  04EA  2CEC               	goto	u178_20
  3887  04EB                     u178_21:
  3888  04EB  2D44               	goto	i1l1486
  3889  04EC                     u178_20:
  3890  04EC                     i1l1478:
  3891  04EC  30FF               	movlw	255
  3892  04ED  00DC               	movwf	??___fladd
  3893  04EE  30FF               	movlw	255
  3894  04EF  00DD               	movwf	??___fladd+1
  3895  04F0  30FF               	movlw	255
  3896  04F1  00DE               	movwf	??___fladd+2
  3897  04F2  30FF               	movlw	255
  3898  04F3  00DF               	movwf	??___fladd+3
  3899  04F4  0858               	movf	___fladd@a,w
  3900  04F5  00E0               	movwf	??___fladd+4
  3901  04F6  0859               	movf	___fladd@a+1,w
  3902  04F7  00E1               	movwf	??___fladd+5
  3903  04F8  085A               	movf	___fladd@a+2,w
  3904  04F9  00E2               	movwf	??___fladd+6
  3905  04FA  085B               	movf	___fladd@a+3,w
  3906  04FB  00E3               	movwf	??___fladd+7
  3907  04FC  0854               	movf	___fladd@b,w
  3908  04FD  02E0               	subwf	??___fladd+4,f
  3909  04FE  0855               	movf	___fladd@b+1,w
  3910  04FF  1C03               	skipc
  3911  0500  0F55               	incfsz	___fladd@b+1,w
  3912  0501  2D03               	goto	u179_21
  3913  0502  2D04               	goto	u179_22
  3914  0503                     u179_21:
  3915  0503  02E1               	subwf	??___fladd+5,f
  3916  0504                     u179_22:
  3917  0504  0856               	movf	___fladd@b+2,w
  3918  0505  1C03               	skipc
  3919  0506  0F56               	incfsz	___fladd@b+2,w
  3920  0507  2D09               	goto	u179_23
  3921  0508  2D0A               	goto	u179_24
  3922  0509                     u179_23:
  3923  0509  02E2               	subwf	??___fladd+6,f
  3924  050A                     u179_24:
  3925  050A  0857               	movf	___fladd@b+3,w
  3926  050B  1C03               	skipc
  3927  050C  0F57               	incfsz	___fladd@b+3,w
  3928  050D  2D0F               	goto	u179_25
  3929  050E  2D10               	goto	u179_26
  3930  050F                     u179_25:
  3931  050F  02E3               	subwf	??___fladd+7,f
  3932  0510                     u179_26:
  3933  0510  0860               	movf	??___fladd+4,w
  3934  0511  07DC               	addwf	??___fladd,f
  3935  0512  0861               	movf	??___fladd+5,w
  3936  0513  1803               	skipnc
  3937  0514  0F61               	incfsz	??___fladd+5,w
  3938  0515  2D17               	goto	u180_20
  3939  0516  2D18               	goto	u180_21
  3940  0517                     u180_20:
  3941  0517  07DD               	addwf	??___fladd+1,f
  3942  0518                     u180_21:
  3943  0518  0862               	movf	??___fladd+6,w
  3944  0519  1803               	skipnc
  3945  051A  0F62               	incfsz	??___fladd+6,w
  3946  051B  2D1D               	goto	u180_22
  3947  051C  2D1E               	goto	u180_23
  3948  051D                     u180_22:
  3949  051D  07DE               	addwf	??___fladd+2,f
  3950  051E                     u180_23:
  3951  051E  0863               	movf	??___fladd+7,w
  3952  051F  1803               	skipnc
  3953  0520  0A63               	incf	??___fladd+7,w
  3954  0521  07DF               	addwf	??___fladd+3,f
  3955  0522  085F               	movf	??___fladd+3,w
  3956  0523  00D7               	movwf	___fladd@b+3
  3957  0524  085E               	movf	??___fladd+2,w
  3958  0525  00D6               	movwf	___fladd@b+2
  3959  0526  085D               	movf	??___fladd+1,w
  3960  0527  00D5               	movwf	___fladd@b+1
  3961  0528  085C               	movf	??___fladd,w
  3962  0529  00D4               	movwf	___fladd@b
  3963  052A                     i1l1480:
  3964  052A  3080               	movlw	128
  3965  052B  00DC               	movwf	??___fladd
  3966  052C  085C               	movf	??___fladd,w
  3967  052D  06E4               	xorwf	___fladd@signs,f
  3968  052E  09E7               	comf	___fladd@grs,f
  3969  052F  0AE7               	incf	___fladd@grs,f
  3970  0530                     i1l1482:
  3971  0530  0867               	movf	___fladd@grs,w
  3972  0531  1D03               	btfss	3,2
  3973  0532  2D34               	goto	u181_21
  3974  0533  2D35               	goto	u181_20
  3975  0534                     u181_21:
  3976  0534  2D52               	goto	i1l470
  3977  0535                     u181_20:
  3978  0535                     i1l1484:
  3979  0535  3001               	movlw	1
  3980  0536  07D4               	addwf	___fladd@b,f
  3981  0537  3000               	movlw	0
  3982  0538  1803               	skipnc
  3983  0539  3001               	movlw	1
  3984  053A  07D5               	addwf	___fladd@b+1,f
  3985  053B  3000               	movlw	0
  3986  053C  1803               	skipnc
  3987  053D  3001               	movlw	1
  3988  053E  07D6               	addwf	___fladd@b+2,f
  3989  053F  3000               	movlw	0
  3990  0540  1803               	skipnc
  3991  0541  3001               	movlw	1
  3992  0542  07D7               	addwf	___fladd@b+3,f
  3993  0543  2D52               	goto	i1l470
  3994  0544                     i1l1486:
  3995  0544  0858               	movf	___fladd@a,w
  3996  0545  02D4               	subwf	___fladd@b,f
  3997  0546  0859               	movf	___fladd@a+1,w
  3998  0547  1C03               	skipc
  3999  0548  0F59               	incfsz	___fladd@a+1,w
  4000  0549  02D5               	subwf	___fladd@b+1,f
  4001  054A  085A               	movf	___fladd@a+2,w
  4002  054B  1C03               	skipc
  4003  054C  0F5A               	incfsz	___fladd@a+2,w
  4004  054D  02D6               	subwf	___fladd@b+2,f
  4005  054E  085B               	movf	___fladd@a+3,w
  4006  054F  1C03               	skipc
  4007  0550  0F5B               	incfsz	___fladd@a+3,w
  4008  0551  02D7               	subwf	___fladd@b+3,f
  4009  0552                     i1l470:
  4010  0552  0857               	movf	___fladd@b+3,w
  4011  0553  0456               	iorwf	___fladd@b+2,w
  4012  0554  0455               	iorwf	___fladd@b+1,w
  4013  0555  0454               	iorwf	___fladd@b,w
  4014  0556  1D03               	skipz
  4015  0557  2D59               	goto	u182_21
  4016  0558  2D5A               	goto	u182_20
  4017  0559                     u182_21:
  4018  0559  2D86               	goto	i1l1508
  4019  055A                     u182_20:
  4020  055A                     i1l1488:
  4021  055A  0867               	movf	___fladd@grs,w
  4022  055B  1D03               	btfss	3,2
  4023  055C  2D5E               	goto	u183_21
  4024  055D  2D5F               	goto	u183_20
  4025  055E                     u183_21:
  4026  055E  2D86               	goto	i1l1508
  4027  055F                     u183_20:
  4028  055F                     i1l1490:
  4029  055F  3000               	movlw	0
  4030  0560  00D7               	movwf	?___fladd+3
  4031  0561  3000               	movlw	0
  4032  0562  00D6               	movwf	?___fladd+2
  4033  0563  3000               	movlw	0
  4034  0564  00D5               	movwf	?___fladd+1
  4035  0565  3000               	movlw	0
  4036  0566  00D4               	movwf	?___fladd
  4037  0567  2E04               	goto	i1l462
  4038  0568                     i1l1494:
  4039  0568  3001               	movlw	1
  4040  0569  00DC               	movwf	??___fladd
  4041  056A                     u184_25:
  4042  056A  1003               	clrc
  4043  056B  0DD4               	rlf	___fladd@b,f
  4044  056C  0DD5               	rlf	___fladd@b+1,f
  4045  056D  0DD6               	rlf	___fladd@b+2,f
  4046  056E  0DD7               	rlf	___fladd@b+3,f
  4047  056F  0BDC               	decfsz	??___fladd,f
  4048  0570  2D6A               	goto	u184_25
  4049  0571                     i1l1496:
  4050  0571  1FE7               	btfss	___fladd@grs,7
  4051  0572  2D74               	goto	u185_21
  4052  0573  2D75               	goto	u185_20
  4053  0574                     u185_21:
  4054  0574  2D76               	goto	i1l474
  4055  0575                     u185_20:
  4056  0575                     i1l1498:
  4057  0575  1454               	bsf	___fladd@b,0
  4058  0576                     i1l474:
  4059  0576  1C67               	btfss	___fladd@grs,0
  4060  0577  2D79               	goto	u186_21
  4061  0578  2D7A               	goto	u186_20
  4062  0579                     u186_21:
  4063  0579  2D7D               	goto	i1l1502
  4064  057A                     u186_20:
  4065  057A                     i1l1500:
  4066  057A  1403               	setc
  4067  057B  0DE7               	rlf	___fladd@grs,f
  4068  057C  2D7F               	goto	i1l1504
  4069  057D                     i1l1502:
  4070  057D  1003               	clrc
  4071  057E  0DE7               	rlf	___fladd@grs,f
  4072  057F                     i1l1504:
  4073  057F  0866               	movf	___fladd@bexp,w
  4074  0580  1903               	btfsc	3,2
  4075  0581  2D83               	goto	u187_21
  4076  0582  2D84               	goto	u187_20
  4077  0583                     u187_21:
  4078  0583  2D86               	goto	i1l1508
  4079  0584                     u187_20:
  4080  0584                     i1l1506:
  4081  0584  3001               	movlw	1
  4082  0585  02E6               	subwf	___fladd@bexp,f
  4083  0586                     i1l1508:
  4084  0586  1FD6               	btfss	___fladd@b+2,7
  4085  0587  2D89               	goto	u188_21
  4086  0588  2D8A               	goto	u188_20
  4087  0589                     u188_21:
  4088  0589  2D68               	goto	i1l1494
  4089  058A                     u188_20:
  4090  058A                     i1l1510:
  4091  058A  01E5               	clrf	___fladd@aexp
  4092  058B                     i1l1512:
  4093  058B  1FE7               	btfss	___fladd@grs,7
  4094  058C  2D8E               	goto	u189_21
  4095  058D  2D8F               	goto	u189_20
  4096  058E                     u189_21:
  4097  058E  2D9D               	goto	i1l1520
  4098  058F                     u189_20:
  4099  058F                     i1l1514:
  4100  058F  0867               	movf	___fladd@grs,w
  4101  0590  397F               	andlw	127
  4102  0591  1903               	btfsc	3,2
  4103  0592  2D94               	goto	u190_21
  4104  0593  2D95               	goto	u190_20
  4105  0594                     u190_21:
  4106  0594  2D98               	goto	i1l480
  4107  0595                     u190_20:
  4108  0595                     i1l1516:
  4109  0595  01E5               	clrf	___fladd@aexp
  4110  0596  0AE5               	incf	___fladd@aexp,f
  4111  0597  2D9D               	goto	i1l1520
  4112  0598                     i1l480:
  4113  0598  1C54               	btfss	___fladd@b,0
  4114  0599  2D9B               	goto	u191_21
  4115  059A  2D9C               	goto	u191_20
  4116  059B                     u191_21:
  4117  059B  2D9D               	goto	i1l1520
  4118  059C                     u191_20:
  4119  059C  2D95               	goto	i1l1516
  4120  059D                     i1l1520:
  4121  059D  0865               	movf	___fladd@aexp,w
  4122  059E  1903               	btfsc	3,2
  4123  059F  2DA1               	goto	u192_21
  4124  05A0  2DA2               	goto	u192_20
  4125  05A1                     u192_21:
  4126  05A1  2DD6               	goto	i1l483
  4127  05A2                     u192_20:
  4128  05A2                     i1l1522:
  4129  05A2  3001               	movlw	1
  4130  05A3  07D4               	addwf	___fladd@b,f
  4131  05A4  3000               	movlw	0
  4132  05A5  1803               	skipnc
  4133  05A6  3001               	movlw	1
  4134  05A7  07D5               	addwf	___fladd@b+1,f
  4135  05A8  3000               	movlw	0
  4136  05A9  1803               	skipnc
  4137  05AA  3001               	movlw	1
  4138  05AB  07D6               	addwf	___fladd@b+2,f
  4139  05AC  3000               	movlw	0
  4140  05AD  1803               	skipnc
  4141  05AE  3001               	movlw	1
  4142  05AF  07D7               	addwf	___fladd@b+3,f
  4143  05B0                     i1l1524:
  4144  05B0  1C57               	btfss	___fladd@b+3,0
  4145  05B1  2DB3               	goto	u193_21
  4146  05B2  2DB4               	goto	u193_20
  4147  05B3                     u193_21:
  4148  05B3  2DD6               	goto	i1l483
  4149  05B4                     u193_20:
  4150  05B4                     i1l1526:
  4151  05B4  0854               	movf	___fladd@b,w
  4152  05B5  00DC               	movwf	??___fladd
  4153  05B6  0855               	movf	___fladd@b+1,w
  4154  05B7  00DD               	movwf	??___fladd+1
  4155  05B8  0856               	movf	___fladd@b+2,w
  4156  05B9  00DE               	movwf	??___fladd+2
  4157  05BA  0857               	movf	___fladd@b+3,w
  4158  05BB  00DF               	movwf	??___fladd+3
  4159  05BC  3001               	movlw	1
  4160  05BD  00E0               	movwf	??___fladd+4
  4161  05BE                     u194_25:
  4162  05BE  0D5F               	rlf	??___fladd+3,w
  4163  05BF  0CDF               	rrf	??___fladd+3,f
  4164  05C0  0CDE               	rrf	??___fladd+2,f
  4165  05C1  0CDD               	rrf	??___fladd+1,f
  4166  05C2  0CDC               	rrf	??___fladd,f
  4167  05C3                     u194_20:
  4168  05C3  0BE0               	decfsz	??___fladd+4,f
  4169  05C4  2DBE               	goto	u194_25
  4170  05C5  085F               	movf	??___fladd+3,w
  4171  05C6  00D7               	movwf	___fladd@b+3
  4172  05C7  085E               	movf	??___fladd+2,w
  4173  05C8  00D6               	movwf	___fladd@b+2
  4174  05C9  085D               	movf	??___fladd+1,w
  4175  05CA  00D5               	movwf	___fladd@b+1
  4176  05CB  085C               	movf	??___fladd,w
  4177  05CC  00D4               	movwf	___fladd@b
  4178  05CD  0A66               	incf	___fladd@bexp,w
  4179  05CE  1903               	btfsc	3,2
  4180  05CF  2DD1               	goto	u195_21
  4181  05D0  2DD2               	goto	u195_20
  4182  05D1                     u195_21:
  4183  05D1  2DD6               	goto	i1l483
  4184  05D2                     u195_20:
  4185  05D2                     i1l1528:
  4186  05D2  3001               	movlw	1
  4187  05D3  00DC               	movwf	??___fladd
  4188  05D4  085C               	movf	??___fladd,w
  4189  05D5  07E6               	addwf	___fladd@bexp,f
  4190  05D6                     i1l483:
  4191  05D6  0A66               	incf	___fladd@bexp,w
  4192  05D7  1903               	btfsc	3,2
  4193  05D8  2DDA               	goto	u196_21
  4194  05D9  2DDB               	goto	u196_20
  4195  05DA                     u196_21:
  4196  05DA  2DE0               	goto	i1l1532
  4197  05DB                     u196_20:
  4198  05DB                     i1l1530:
  4199  05DB  0866               	movf	___fladd@bexp,w
  4200  05DC  1D03               	btfss	3,2
  4201  05DD  2DDF               	goto	u197_21
  4202  05DE  2DE0               	goto	u197_20
  4203  05DF                     u197_21:
  4204  05DF  2DEE               	goto	i1l1538
  4205  05E0                     u197_20:
  4206  05E0                     i1l1532:
  4207  05E0  3000               	movlw	0
  4208  05E1  00D7               	movwf	___fladd@b+3
  4209  05E2  3000               	movlw	0
  4210  05E3  00D6               	movwf	___fladd@b+2
  4211  05E4  3000               	movlw	0
  4212  05E5  00D5               	movwf	___fladd@b+1
  4213  05E6  3000               	movlw	0
  4214  05E7  00D4               	movwf	___fladd@b
  4215  05E8                     i1l1534:
  4216  05E8  0866               	movf	___fladd@bexp,w
  4217  05E9  1D03               	btfss	3,2
  4218  05EA  2DEC               	goto	u198_21
  4219  05EB  2DED               	goto	u198_20
  4220  05EC                     u198_21:
  4221  05EC  2DEE               	goto	i1l1538
  4222  05ED                     u198_20:
  4223  05ED                     i1l1536:
  4224  05ED  01E4               	clrf	___fladd@signs
  4225  05EE                     i1l1538:
  4226  05EE  1C66               	btfss	___fladd@bexp,0
  4227  05EF  2DF1               	goto	u199_21
  4228  05F0  2DF2               	goto	u199_20
  4229  05F1                     u199_21:
  4230  05F1  2DF4               	goto	i1l1542
  4231  05F2                     u199_20:
  4232  05F2                     i1l1540:
  4233  05F2  17D6               	bsf	___fladd@b+2,7
  4234  05F3  2DF8               	goto	i1l491
  4235  05F4                     i1l1542:
  4236  05F4  307F               	movlw	127
  4237  05F5  00DC               	movwf	??___fladd
  4238  05F6  085C               	movf	??___fladd,w
  4239  05F7  05D6               	andwf	___fladd@b+2,f
  4240  05F8                     i1l491:
  4241  05F8  0866               	movf	___fladd@bexp,w
  4242  05F9  00DC               	movwf	??___fladd
  4243  05FA  1003               	clrc
  4244  05FB  0C5C               	rrf	??___fladd,w
  4245  05FC  00DD               	movwf	??___fladd+1
  4246  05FD  085D               	movf	??___fladd+1,w
  4247  05FE  00D7               	movwf	___fladd@b+3
  4248  05FF                     i1l1544:
  4249  05FF  1FE4               	btfss	___fladd@signs,7
  4250  0600  2E02               	goto	u200_21
  4251  0601  2E03               	goto	u200_20
  4252  0602                     u200_21:
  4253  0602  2E04               	goto	i1l492
  4254  0603                     u200_20:
  4255  0603                     i1l1546:
  4256  0603  17D7               	bsf	___fladd@b+3,7
  4257  0604                     i1l492:
  4258  0604                     i1l462:
  4259  0604  0008               	return
  4260  0605                     __end_of___fladd:
  4261  007E                     btemp	set	126	;btemp
  4262  007E                     wtemp0	set	126
  4263                           
  4264                           	psect	idloc
  4265                           
  4266                           ;Config register IDLOC0 @ 0x2000
  4267                           ;	unspecified, using default values
  4268  2000                     	org	8192
  4269  2000  3FFF               	dw	16383
  4270                           
  4271                           ;Config register IDLOC1 @ 0x2001
  4272                           ;	unspecified, using default values
  4273  2001                     	org	8193
  4274  2001  3FFF               	dw	16383
  4275                           
  4276                           ;Config register IDLOC2 @ 0x2002
  4277                           ;	unspecified, using default values
  4278  2002                     	org	8194
  4279  2002  3FFF               	dw	16383
  4280                           
  4281                           ;Config register IDLOC3 @ 0x2003
  4282                           ;	unspecified, using default values
  4283  2003                     	org	8195
  4284  2003  3FFF               	dw	16383
  4285                           
  4286                           	psect	config
  4287                           
  4288                           ;Config register CONFIG1 @ 0x2007
  4289                           ;	Oscillator Selection bits
  4290                           ;	FOSC = INTRC_NOCLKOUT, INTOSCIO oscillator: I/O function on RA6/OSC2/CLKOUT pin, I/O f
      +                          unction on RA7/OSC1/CLKIN
  4291                           ;	Watchdog Timer Enable bit
  4292                           ;	WDTE = OFF, WDT disabled and can be enabled by SWDTEN bit of the WDTCON register
  4293                           ;	Power-up Timer Enable bit
  4294                           ;	PWRTE = OFF, PWRT disabled
  4295                           ;	RE3/MCLR pin function select bit
  4296                           ;	MCLRE = OFF, RE3/MCLR pin function is digital input, MCLR internally tied to VDD
  4297                           ;	Code Protection bit
  4298                           ;	CP = OFF, Program memory code protection is disabled
  4299                           ;	Data Code Protection bit
  4300                           ;	CPD = OFF, Data memory code protection is disabled
  4301                           ;	Brown Out Reset Selection bits
  4302                           ;	BOREN = OFF, BOR disabled
  4303                           ;	Internal External Switchover bit
  4304                           ;	IESO = OFF, Internal/External Switchover mode is disabled
  4305                           ;	Fail-Safe Clock Monitor Enabled bit
  4306                           ;	FCMEN = OFF, Fail-Safe Clock Monitor is disabled
  4307                           ;	Low Voltage Programming Enable bit
  4308                           ;	LVP = OFF, RB3 pin has digital I/O, HV on MCLR must be used for programming
  4309                           ;	In-Circuit Debugger Mode bit
  4310                           ;	DEBUG = 0x1, unprogrammed default
  4311  2007                     	org	8199
  4312  2007  20D4               	dw	8404
  4313                           
  4314                           ;Config register CONFIG2 @ 0x2008
  4315                           ;	Brown-out Reset Selection bit
  4316                           ;	BOR4V = BOR40V, Brown-out Reset set to 4.0V
  4317                           ;	Flash Program Memory Self Write Enable bits
  4318                           ;	WRT = OFF, Write protection off
  4319  2008                     	org	8200
  4320  2008  3FFF               	dw	16383

Data Sizes:
    Strings     0
    Constant    0
    Data        0
    BSS         3
    Persistent  0
    Stack       0

Auto Spaces:
    Space          Size  Autos    Used
    COMMON           14     14      14
    BANK0            80     79      79
    BANK1            80     16      19
    BANK3            96      0       0
    BANK2            96      0       0

Pointer List with Targets:

    None.

Critical Paths under _main in COMMON

    None.

Critical Paths under _isr in COMMON

    _map->___xxtofl
    ___fltol->___xxtofl
    ___flmul->___xxtofl
    ___fldiv->___xxtofl
    ___fladd->___xxtofl

Critical Paths under _main in BANK0

    None.

Critical Paths under _isr in BANK0

    _isr->_map
    _map->___fltol
    ___fltol->___fladd
    ___flmul->___fldiv
    ___fladd->___flmul

Critical Paths under _main in BANK1

    None.

Critical Paths under _isr in BANK1

    _isr->_map
    _map->___fltol

Critical Paths under _main in BANK3

    None.

Critical Paths under _isr in BANK3

    None.

Critical Paths under _main in BANK2

    None.

Critical Paths under _isr in BANK2

    None.

Call Graph Tables:

 ---------------------------------------------------------------------------------
 (Depth) Function   	        Calls       Base Space   Used Autos Params    Refs
 ---------------------------------------------------------------------------------
 (0) _main                                                 0     0      0       0
                              _setup
 ---------------------------------------------------------------------------------
 (1) _setup                                                0     0      0       0
 ---------------------------------------------------------------------------------
 Estimated maximum stack depth 1
 ---------------------------------------------------------------------------------
 (Depth) Function   	        Calls       Base Space   Used Autos Params    Refs
 ---------------------------------------------------------------------------------
 (2) _isr                                                  5     5      0    7341
                                             11 BANK1      5     5      0
                                _map
 ---------------------------------------------------------------------------------
 (3) _map                                                  7     1      6    7341
                                             78 BANK0      1     1      0
                                              5 BANK1      6     0      6
                            ___fladd
                            ___fldiv
                            ___flmul
                            ___fltol
                           ___xxtofl
 ---------------------------------------------------------------------------------
 (4) ___xxtofl                                            14    10      4     626
                                              0 COMMON    14    10      4
 ---------------------------------------------------------------------------------
 (4) ___fltol                                             11     7      4     305
                                             72 BANK0      6     2      4
                                              0 BANK1      5     5      0
                            ___fladd (ARG)
                            ___fldiv (ARG)
                            ___flmul (ARG)
                           ___xxtofl (ARG)
 ---------------------------------------------------------------------------------
 (4) ___flmul                                             26    18      8    2417
                                             26 BANK0     26    18      8
                          __Umul8_16
                            ___fldiv (ARG)
                           ___xxtofl (ARG)
 ---------------------------------------------------------------------------------
 (5) __Umul8_16                                            9     7      2     799
                                              0 COMMON     9     7      2
 ---------------------------------------------------------------------------------
 (4) ___fldiv                                             26    18      8    1273
                                              0 BANK0     26    18      8
                           ___xxtofl (ARG)
 ---------------------------------------------------------------------------------
 (4) ___fladd                                             20    12      8    2262
                                             52 BANK0     20    12      8
                            ___fldiv (ARG)
                            ___flmul (ARG)
                           ___xxtofl (ARG)
 ---------------------------------------------------------------------------------
 Estimated maximum stack depth 5
 ---------------------------------------------------------------------------------

 Call Graph Graphs:

 _main (ROOT)
   _setup

 _isr (ROOT)
   _map
     ___fladd
       ___fldiv (ARG)
         ___xxtofl (ARG)
       ___flmul (ARG)
         __Umul8_16
         ___fldiv (ARG)
         ___xxtofl (ARG)
       ___xxtofl (ARG)
     ___fldiv
     ___flmul
     ___fltol
       ___fladd (ARG)
       ___fldiv (ARG)
       ___flmul (ARG)
       ___xxtofl (ARG)
     ___xxtofl

 Address spaces:
Name               Size   Autos  Total    Cost      Usage
BITCOMMON            E      0       0       0        0.0%
EEDATA             100      0       0       0        0.0%
NULL                 0      0       0       0        0.0%
CODE                 0      0       0       0        0.0%
COMMON               E      E       E       1      100.0%
BITSFR0              0      0       0       1        0.0%
SFR0                 0      0       0       1        0.0%
BITSFR1              0      0       0       2        0.0%
SFR1                 0      0       0       2        0.0%
STACK                0      0       0       2        0.0%
ABS                  0      0      70       3        0.0%
BITBANK0            50      0       0       4        0.0%
BITSFR3              0      0       0       4        0.0%
SFR3                 0      0       0       4        0.0%
BANK0               50     4F      4F       5       98.8%
BITSFR2              0      0       0       5        0.0%
SFR2                 0      0       0       5        0.0%
BITBANK1            50      0       0       6        0.0%
BANK1               50     10      13       7       23.8%
BITBANK3            60      0       0       8        0.0%
BANK3               60      0       0       9        0.0%
BITBANK2            60      0       0      10        0.0%
BANK2               60      0       0      11        0.0%
DATA                 0      0      70      12        0.0%


Microchip Technology PIC Macro Assembler V2.35 build 20211206165544 
Symbol Table                                                                                   Sat May 14 23:07:24 2022

           ___fldiv@aexp 0039             ___fldiv@bexp 0038             ___fldiv@sign 0031  
            _SSPSTATbits 0094                       l64 0D8A                       l66 0D8E  
                     l58 07E7                       l67 0DA8                       l59 07E7  
    __Umul8_16@word_mpld 0076                      _PR2 0092                      _map 0E94  
                    _isr 0DA9             ___flmul@aexp 004C             ___flmul@bexp 004D  
           ___flmul@sign 0047             ___flmul@temp 0052             ___flmul@prod 004E  
           ___fltol@exp1 006D                     l1900 0D82                     l1910 0D93  
                   l1902 0D86                     l1920 0D9F                     l1912 0D96  
                   l1904 0D87                     l1922 0DA0                     l1914 0D9A  
                   l1906 0D89                     l1924 0DA3                     l1916 0D9B  
                   l1908 0D8F                     l1926 0DA6                     l1918 0D9C  
                   l1928 0DA7                     l1880 0D66                     l1944 07E2  
                   l1890 0D75                     l1882 0D6A                     l1892 0D77  
                   l1884 0D6D                     l1894 0D7A                     l1886 0D73  
                   l1878 0D62                     ?_map 00A5                     l1896 0D7C  
                   l1888 0D74                     l1898 0D80                     ?_isr 0070  
                   _CCPR 00B0                     u2810 0D8E                     u2811 0D8D  
                   i1l53 0DED                     i1l70 0F45                     _main 07E2  
                   map@x 006E                     btemp 007E                     start 0010  
        ___fldiv@new_exp 0032                    ??_map 007E                    ??_isr 00AB  
          ___fltol@sign1 006C          __end_of___fladd 0605                    ?_main 0070  
        __end_of___fldiv 07E2          __end_of___flmul 037D          __end_of___fltol 0E94  
                  _ANSEL 0188                    i1l342 0E93                    i1l352 0E93  
                  i1l521 0753                    i1l505 0661                    i1l602 0FC9  
                  i1l507 07E1                    i1l603 0FD5                    i1l453 0487  
                  i1l349 0E7E                    i1l470 0552                    i1l462 0604  
                  i1l455 045E                    i1l527 07C5                    i1l551 02E8  
                  i1l480 0598                    i1l449 03E0                    i1l529 07D5  
                  i1l545 037C                    i1l474 0576                    i1l491 05F8  
                  i1l483 05D6                    i1l492 0604                    i1l564 0D4F  
                  i1l557 0370                    i1l566 0D61                    i1l591 0FFF  
                  i1l595 0FAD                    i1l589 0F68                    _PORTA 0005  
                  _PORTC 0007                    _TRISA 0085                    _TRISC 0087  
                  map@x0 00A5                    map@x1 00A6                    map@y0 00A7  
                  map@y1 00A9                    _setup 0D62                    pclath 000A  
                  status 0003                    wtemp0 007E          __initialization 0013  
           __end_of_main 07EB                   ??_main 00B0                   _CCPR1L 0015  
                 ?_setup 0070                   _ANSELH 0189                   i1l1310 0D49  
                 i1l1400 03EA                   i1l1312 0D58                   i1l1304 0D3C  
                 i1l1320 0E09                   i1l1410 03FE                   i1l1402 03EE  
                 i1l1314 0D5D                   i1l1306 0D3E                   i1l1330 0E40  
                 i1l1500 057A                   i1l1420 0412                   i1l1412 0402  
                 i1l1404 03F2                   i1l1308 0D45                   i1l1340 0E4E  
                 i1l1332 0E42                   i1l1324 0E12                   i1l1502 057D  
                 i1l1510 058A                   i1l1430 0426                   i1l1422 0416  
                 i1l1414 0406                   i1l1406 03F6                   i1l1350 0E83  
                 i1l1334 0E46                   i1l1342 0E64                   i1l1326 0E37  
                 i1l1318 0DF8                   u200_20 0603                   i1l1520 059D  
                 i1l1512 058B                   i1l1504 057F                   i1l1440 046B  
                 i1l1424 041A                   i1l1416 040A                   i1l1408 03FA  
                 i1l1432 042A                   i1l1360 038E                   i1l1352 0E88  
                 i1l1328 0E38                   u200_21 0602                   i1l1530 05DB  
                 i1l1522 05A2                   i1l1514 058F                   i1l1506 0584  
                 i1l1442 046D                   i1l1450 047F                   i1l1434 042B  
                 i1l1426 041E                   i1l1418 040E                   i1l1370 03A2  
                 i1l1362 038F                   i1l1354 037D                   i1l1610 06BA  
                 i1l1602 0690                   i1l1540 05F2                   i1l1532 05E0  
                 i1l1524 05B0                   i1l1516 0595                   i1l1508 0586  
                 i1l1460 04B0                   i1l1452 048B                   i1l1444 0471  
                 i1l1436 0442                   i1l1428 0422                   i1l1380 03B8  
                 i1l1364 0394                   i1l1372 03A4                   i1l1356 0384  
                 i1l1620 06D8                   i1l1612 06BC                   i1l1604 06A2  
                 i1l1700 0033                   i1l1348 0E6B                   i1l1542 05F4  
                 i1l1534 05E8                   i1l1526 05B4                   i1l1470 04C7  
                 i1l1462 04B4                   i1l1454 0490                   i1l1446 0472  
                 i1l1438 0462                   i1l1390 03CD                   i1l1382 03BE  
                 i1l1374 03AC                   i1l1366 0399                   i1l1358 038A  
                 i1l1614 06C1                   i1l1622 06E1                   i1l1630 0706  
                 i1l1606 06AA                   i1l1550 060C                   i1l1710 004F  
                 i1l1702 0038                   i1l1544 05FF                   i1l1536 05ED  
                 i1l1528 05D2                   i1l1480 052A                   i1l1472 04C8  
                 i1l1464 04B8                   i1l1448 047B                   i1l1392 03D5  
                 i1l1384 03C2                   i1l1376 03B1                   i1l1368 03A1  
                 i1l1640 0723                   i1l1632 070C                   i1l1624 06F3  
                 i1l1616 06D3                   i1l1608 06B2                   i1l1560 0621  
                 u201_20 0616                   i1l1552 0612                   i1l1800 02F2  
                 i1l1720 0064                   i1l1712 0055                   i1l1704 0040  
                 u201_21 0615                   i1l1546 0603                   i1l1538 05EE  
                 i1l1490 055F                   i1l1482 0530                   i1l1474 04D1  
                 i1l1466 04C1                   i1l1458 0499                   i1l1394 03D6  
                 i1l1386 03C3                   i1l1378 03B7                   i1l1650 0738  
                 i1l1642 0724                   i1l1634 0714                   i1l1626 06F4  
                 i1l1618 06D7                   i1l1570 0639                   i1l1562 0629  
                 i1l1554 0616                   i1l1810 0330                   i1l1802 0300  
                 i1l1730 0080                   i1l1722 006C                   i1l1714 0059  
                 i1l1706 0042                   i1l1484 0535                   i1l1468 04C3  
                 i1l1476 04D6                   i1l1388 03C8                   i1l1396 03D8  
                 i1l1660 075D                   i1l1652 073C                   i1l1644 072D  
                 i1l1636 0716                   i1l1628 0702                   i1l1580 064E  
                 i1l1572 063F                   i1l1564 062A                   i1l1556 0617  
                 i1l1548 0605                   i1l1820 0364                   i1l1812 033B  
                 i1l1804 0304                   i1l1740 00C3                   i1l1724 006E  
                 i1l1716 005A                   i1l1708 004A                   i1l1494 0568  
                 i1l1478 04EC                   i1l1486 0544                   i1l1398 03E6  
                 i1l1670 079B                   i1l1662 076B                   i1l1654 0750  
                 i1l1638 071F                   i1l1646 0733                   i1l1590 0675  
                 i1l1582 0656                   i1l1574 0643                   i1l1558 061C  
                 i1l1566 062C                   i1l1822 0368                   i1l1814 034A  
                 i1l1806 031D                   i1l1750 014C                   i1l1742 00DF  
                 i1l1734 0089                   i1l1726 0076                   i1l1718 005F  
                 i1l1830 0F47                   i1l1496 0571                   i1l1488 055A  
                 i1l1680 07CB                   i1l1672 07A9                   i1l1664 076F  
                 i1l1648 0737                   i1l1592 0679                   i1l1584 0657  
                 i1l1576 0644                   i1l1568 0634                   u202_20 061C  
                 i1l1824 0369                   i1l1816 0354                   i1l1808 0323  
                 i1l1760 01BF                   i1l1752 015C                   i1l1744 010B  
                 i1l1736 0099                   i1l1728 007B                   i1l1832 0F4C  
                 u202_21 061B                   i1l1498 0575                   i1l1682 07CF  
                 i1l1674 07B8                   i1l1666 0788                   i1l1658 0758  
                 i1l1578 0649                   i1l1586 0659                   i1l1826 0374  
                 i1l1818 0356                   i1l1770 026C                   i1l1762 01DC  
                 i1l1754 0179                   i1l1746 0127                   i1l1738 00A6  
                 i1l1690 001C                   i1l1850 0F96                   i1l1842 0F79  
                 i1l1834 0F50                   i1l1930 0DA9                   i1l1684 07D1  
                 i1l1676 07BC                   i1l1668 078E                   i1l1588 0669  
                 i1l1596 0682                   i1l1780 02B8                   i1l1772 0294  
                 i1l1764 0209                   i1l1756 0189                   i1l1748 0143  
                 i1l1692 0023                   i1l1860 0FCD                   i1l1852 0FA4  
                 i1l1844 0F7E                   i1l1836 0F60                   i1l1940 0DEC  
                 i1l1932 0DAF                   u210_25 06C3                   i1l1678 07C4  
                 i1l1598 0687                   i1l1790 02CD                   i1l1782 02B9  
                 i1l1774 029D                   i1l1766 0219                   i1l1758 01A6  
                 i1l1694 0029                   i1l1870 0FF7                   i1l1862 0FD7  
                 i1l1854 0FB4                   i1l1846 0F8B                   i1l1838 0F70  
                 i1l1934 0DB5                   u203_20 0621                   i1l1792 02D1  
                 i1l1784 02C2                   i1l1776 02AB                   i1l1768 0246  
                 i1l1696 002D                   i1l1864 0FED                   i1l1856 0FBF  
                 i1l1848 0F92                   i1l1936 0DCD                   u203_21 0620  
                 i1l1794 02E5                   i1l1778 02B4                   i1l1786 02C8  
                 i1l1698 002E                   i1l1866 0FF2                   i1l1858 0FC3  
                 i1l1874 0E97                   i1l1938 0DDB                   i1l1788 02CC  
                 i1l1868 0FF6                   u211_25 06CC                   i1l1798 02ED  
                 u220_20 0737                   u212_20 06D7                   u204_20 0643  
                 u220_21 0736                   u212_21 06D6                   u204_21 0642  
                 u221_20 073C                   u205_20 0649                   u221_21 073B  
                 u205_21 0648                   u213_25 06DA                   u222_20 0750  
                 u214_20 06F3                   u206_20 064E                   u142_20 0D49  
                 u230_20 002D                   u150_20 0E63                   u222_21 074F  
                 u214_21 06F2                   u206_21 064D                   u142_21 0D48  
                 u230_21 002C                   u150_21 0E62                   u214_25 06EF  
                 u223_20 0757                   u215_20 070C                   u207_20 0669  
                 u231_20 0033                   u151_20 0E6A                   u223_21 0756  
                 u215_21 070B                   u207_21 0668                   u231_21 0032  
                 u151_21 0E69                   u143_25 0D50                   u160_20 03C8  
                 u224_20 075D                   u216_20 0714                   u208_20 0687  
                 u144_20 0D5D                   u232_20 0038                   u160_21 03C7  
                 u224_21 075C                   u216_21 0713                   u208_21 0686  
                 u144_21 0D5C                   u240_21 0119                   u232_21 0037  
                 u240_22 0120                   u240_23 0127                   u152_25 0E6F  
                 u161_20 03CD                   u225_20 076F                   u209_20 06C1  
                 u233_20 0059                   u153_20 0E83                   u145_20 0E09  
                 u161_21 03CC                   u225_21 076E                   u209_21 06C0  
                 u241_21 0135                   u233_21 0058                   u153_21 0E82  
                 u145_21 0E08                   u241_22 013C                   u241_23 0143  
                 u217_25 0718                   u170_20 0487                   u162_20 03E6  
                 u226_20 077E                   u218_20 0723                   u234_20 005F  
                 u154_20 0E88                   u146_20 0E2E                   u170_21 0486  
                 u162_21 03E5                   u218_21 0722                   u250_21 025E  
                 u234_21 005E                   u154_21 0E87                   u250_22 0265  
                 u250_23 026C                   u226_25 0779                   u242_25 0145  
                 u146_25 0E29                   u171_20 048B                   u163_20 03EA  
                 u155_20 038E                   u227_20 079B                   u251_20 027A  
                 u235_20 0064                   u147_20 0E46                   u171_21 048A  
                 u163_21 03E9                   u155_21 038D                   u227_21 079A  
                 u243_21 016B                   u235_21 0063                   u147_21 0E45  
                 u243_22 0172                   u243_23 0179                   u227_25 0797  
                 u219_25 0726                   u251_25 0275                   u180_20 0517  
                 u172_20 0490                   u164_20 0442                   u156_20 0394  
                 u228_20 07B8                   u260_20 02EC                   u236_20 007B  
                 u148_20 0E4D                   u180_21 0518                   u172_21 048F  
                 u164_21 0441                   u156_21 0393                   u228_21 07B7  
                 u260_21 02EB                   u252_21 0286                   u244_21 0198  
                 u236_21 007A                   u148_21 0E4C                   u180_22 051D  
                 u252_22 028D                   u244_22 019F                   u180_23 051E  
                 u252_23 0294                   u244_23 01A6                   u164_25 043E  
                 u228_25 07B4                   u181_20 0535                   u165_20 044D  
                 u157_20 0399                   u229_20 07CF                   u261_20 02F2  
                 u237_20 0080                   u181_21 0534                   u173_21 04A2  
                 u165_21 044B                   u157_21 0398                   u229_21 07CE  
                 u261_21 02F1                   u237_21 007F                   u173_22 04A9  
                 u173_23 04B0                   u253_25 0296                   u245_25 01A8  
                 u149_25 0E4F                   u190_20 0595                   u182_20 055A  
                 u174_20 04B4                   u166_20 044E                   u158_20 03B7  
                 u262_20 0304                   u190_21 0594                   u182_21 0559  
                 u174_21 04B3                   u158_21 03B6                   u262_21 0303  
                 u246_21 01CE                   u238_21 00D1                   u246_22 01D5  
                 u238_22 00D8                   u246_23 01DC                   u238_23 00DF  
                 u254_25 02AD                   u270_25 0F83                   u191_20 059C  
                 u183_20 055F                   u175_20 04B8                   u167_20 0462  
                 u159_20 03C2                   u263_20 0313                   u255_20 02B8  
                 u271_20 0F91                   u191_21 059B                   u183_21 055E  
                 u175_21 04B7                   u167_21 0461                   u159_21 03C1  
                 u255_21 02B7                   u247_21 01FB                   u239_21 00ED  
                 u271_21 0F90                   u247_22 0202                   u239_22 00F4  
                 u247_23 0209                   u239_23 00FB                   u263_25 030E  
                 u192_20 05A2                   u176_20 04C7                   u168_20 0471  
                 u264_20 0330                   u280_20 0FF6                   u192_21 05A1  
                 u176_21 04C6                   u168_21 0470                   u264_21 032F  
                 u248_21 0228                   u280_21 0FF5                   u248_22 022F  
                 u248_23 0236                   u184_25 056A                   u264_25 032C  
                 u256_25 02BB                   u272_25 0FA5                   u193_20 05B4  
                 u185_20 0575                   u265_20 034A                   u257_20 02CC  
                 u249_20 0252                   u273_20 0FB3                   u193_21 05B3  
                 u185_21 0574                   u265_21 0349                   u257_21 02CB  
                 u273_21 0FB2                   u177_25 04CA                   u169_25 0474  
                 u265_25 0346                   u249_25 024D                   u194_20 05C3  
                 u186_20 057A                   u178_20 04EC                   u266_20 0368  
                 u258_20 02D1                   u282_20 0DAF                   u186_21 0579  
                 u178_21 04EB                   u266_21 0367                   u258_21 02D0  
                 u282_21 0DAE                   u178_23 04E8                   u194_25 05BE  
                 u274_25 0FB8                   u195_20 05D2                   u187_20 0584  
                 u259_20 02E5                   u275_20 0FC3                   u267_20 0F4C  
                 u195_21 05D1                   u187_21 0583                   u179_21 0503  
                 u259_21 02E4                   u275_21 0FC2                   u267_21 0F4B  
                 u179_22 0504                   u179_23 0509                   u179_24 050A  
                 u179_25 050F                   u179_26 0510                   u196_20 05DB  
                 u188_20 058A                   u276_20 0FC9                   u268_20 0F50  
                 u196_21 05DA                   u188_21 0589                   u276_21 0FC8  
                 u268_21 0F4F                   u197_20 05E0                   u189_20 058F  
                 u277_20 0FCD                   u269_20 0F70                   u197_21 05DF  
                 u189_21 058E                   u277_21 0FCC                   u269_21 0F6F  
                 u198_20 05ED                   u278_20 0FE2                   u198_21 05EC  
                 u278_25 0FDD                   u199_20 05F2                   u279_20 0FF2  
                 u199_21 05F1                   u279_21 0FF1                   _SSPBUF 0013  
                 _ULTIMO 00B2         __end_of___xxtofl 1000                ??___fladd 005C  
              ??___fldiv 0028                ??___flmul 0042                ??___fltol 00A0  
                 saved_w 007E             ___xxtofl@arg 007A             ___xxtofl@exp 0079  
           ___xxtofl@val 0070  __end_of__initialization 0018               ___fltol@f1 0068  
         __pcstackCOMMON 0070            __end_of_setup 0DA9                  ??_setup 00B0  
             __pbssBANK1 00B0        __end_of__Umul8_16 0D62               __pmaintext 07E2  
             __pintentry 0004                  _CCP1CON 0017                ?___xxtofl 0070  
                ___fladd 037D                  ___fldiv 0605                  ___flmul 001C  
                ___fltol 0DF8                  __ptext1 0D62                  __ptext2 0DA9  
                __ptext3 0E94                  __ptext4 0F46                  __ptext5 0DF8  
                __ptext6 001C                  __ptext7 0D3B                  __ptext8 0605  
                __ptext9 037D                _T2CONbits 0012               ??___xxtofl 0074  
   end_of_initialization 0018              ___fladd@grs 0067            ___xxtofl@sign 0078  
              _TRISCbits 0087              ___fldiv@grs 0034              ___fldiv@rem 002D  
            ___flmul@grs 0048              _CCP1CONbits 0017      start_initialization 0013  
            __end_of_map 0F46              __end_of_isr 0DF8                __Umul8_16 0D3B  
              ___fladd@a 0058                ___fladd@b 0054                ___fldiv@a 0020  
              ___fldiv@b 0024                ___flmul@a 003E                ___flmul@b 003A  
              ___latbits 0002            __pcstackBANK0 0020            __pcstackBANK1 00A0  
               ?___fladd 0054                 ?___fldiv 0020                 ?___flmul 003A  
               ?___fltol 0068               ?__Umul8_16 0070        interrupt_function 0004  
               _PIE1bits 008C                 _PIR1bits 000C              ??__Umul8_16 0072  
               ___xxtofl 0F46               _INTCONbits 000B                 intlevel1 0000  
             _OSCCONbits 008F   __Umul8_16@multiplicand 0070            ___fladd@signs 0064  
           ___fladd@aexp 0065             ___fladd@bexp 0066     __Umul8_16@multiplier 0078  
             _SSPCONbits 0014        __Umul8_16@product 0074  
